Sjasm Z80 Assembler v0.42c - www.xl2s.tk             [2022.09.15 - 20:12:40]

NUCLEO.ASM
Errors: 0

       1   00:0000                       				output	"NEWTERRA.rom"   								; El nombre con el que saldrá nuestro archivo ROM
       2   00:4000                      		
       3   00:4000                      				include	"RECURSOS BASICOS/BIOS.asm"						; Referencias a la BIOS.
       1.  00:4000  (00:0138)           RSLREG			equ		#0138											; Lee registro del slot primario y lo devuelve a A
       2.  00:4000  (00:0024)           ENASLT			equ		#0024											; Para ampliar la ram
       3.  00:4000  (00:E00A)           FINAL_MEMORIA:	equ 	#0000E00A										; Dirección final de memoria a limpiar de GFX9000
       4.  00:4000  (00:F3DB)           CLIKSW:			equ 	#F3DB											; Controla el sonido click de cuando pulsas una tecla (0=apagado 1=encendido)
       5.  00:4000  (00:0056)           FILVRM:			equ		#0056											; Para rellenar parte de VRAM con un valor
       6.  00:4000  (00:005C)           LDIRVM:			equ		#005C											; Graba en vram una parte de ram
       7.  00:4000  (00:005F)           CHGMOD:			equ		#005F											; Cambiar modo gráfico
       8.  00:4000  (00:0020)           DCOMPR:			equ		#0020											; Compare pero para 16 bits
       9.  00:4000  (00:00D5)           GTSTCK:			equ		#00D5											;controla los cursores o direcciones del joistick
      10.  00:4000                      																		;En a metes		0 para controlar cursores
      11.  00:4000                      																		;				1 para controlar puerto 1
      12.  00:4000                      																		;				2 para controlar puerto 2
      13.  00:4000                      																		;en a sale		0 Norte
      14.  00:4000                      																		;				1 Noreste
      15.  00:4000                      																		;				...
      16.  00:4000                      																		;				7 Noroeste
      17.  00:4000  (00:00D8)           GTTRIG:			equ		#00D8											;controla los botones del joystick o la barra espaciadora
      18.  00:4000                      																		;En a metes 	0 para controlar barra espaciadora
      19.  00:4000                      																		;				1 para controlar boton 1 puerto 1
      20.  00:4000                      																		;				2 para controlar boton 1 puerto 2
      21.  00:4000                      																		;				3 para controlar boton 2 puerto 1
      22.  00:4000                      																		;				4 para controlar boton 2 puerto 2
      23.  00:4000                      																		; El resultado es #00 si no está pulsado y #FF si sí está pulsado
      24.  00:4000  (00:FD9A)           H.KEYI			equ		#FD9A											;lugar al que se va cada vez que hay una interrupción de cualquier tipo
      25.  00:4000  (00:0141)           SNSMAT			equ		#0141											;controla si se ha pulsado una tecla
      26.  00:4000  (00:0180)           CHGCPU			equ		#0180
       4   00:4000                      				include	"RECURSOS BASICOS/VARIABLES.asm"				; Las variables a usar en el programa.
       1.  00:4000  (C000)              				MAP 	#C000											; Dirección de memoria donde empezamos a escribir variables.
       2.  00:4000                      																		; Recordar que tiene que ser en una página de la RAM y nunca del ROM.
       3.  00:4000                      																		; Solemos utilizar el campo 3 que empieza en #C000.
       4.  00:4000  (00:C000)           SLOTVAR:				#1												; Controla el slot que ampliamos para uso de la RAM
       5.  00:4000  (00:C001)           PAGINA_A_LA_QUE_VOLVER:	#1												; Guarda la page en la que estaba el slot 2 para devolverlo tras la interrupcion
       6.  00:4000                      
       7.  00:4000  (00:C002)           posicion_scroll_x_A:	#2												; Posición del scroll y en el plano A
       8.  00:4000  (00:C004)           posicion_scroll_y_A:	#2												; Posición del scroll y en el plano A
       9.  00:4000  (00:C006)           pos_scroll_x_A_objet:	#2												; Posición del scroll y en el plano A
      10.  00:4000  (00:C008)           pos_scroll_y_A_objet:	#2												; Posición del scroll y en el plano A
      11.  00:4000  (00:C00A)           posicion_scroll_y_B:	#2												; Posición del scroll y en el plano B
      12.  00:4000                      
      13.  00:4000  (00:C00C)           PANTALLA_ACTUAL:		#2 
      14.  00:4000  (00:C00E)           TILE_SUP_IZQ_PANTALLA:	#2
      15.  00:4000  (00:C010)           TILE_SUP_IZQ_HYPERTILE:	#2
      16.  00:4000  (00:C012)           BYTE_VRAM_EMPIEZA_E:	#2
      17.  00:4000  (00:C014)           BYTE_VRAM_EMPIEZA_HL:	#2
      18.  00:4000  (00:C016)           POSICION_ACTUAL_SCROLL:	#1
      19.  00:4000  (00:C017)           DIRECCION_DONDE_VAMOS:	#1
      20.  00:4000  (00:C018)           SPACE_PULSADO:			#1												; Guarda el valor del space
      21.  00:4000  (00:C019)           PROCESO_DE_SALTO:		#1
      22.  00:4000  (00:C01A)           ATENCION_AL_SALTO:		#1
      23.  00:4000  (00:C01B)           POSE_PROTA:				#1												; 0 A 3 CAMINAR
      24.  00:4000                      																		; ...
      25.  00:4000                      
      26.  00:4000  (00:C01C)           OBJETO_TOCANDO_1:		#1
      27.  00:4000  (00:C01D)           OBJETO_TOCANDO_2:		#1
      28.  00:4000                      
      29.  00:4000  (00:C01E)           PERSONAJE:				#1
      30.  00:4000  (00:C01F)           DETRAS_DE_POZO:			#1
      31.  00:4000  (00:C020)           SUMA_ALTURA_CAIDA:		#1
      32.  00:4000  (00:C021)           PANTALLA_ACTUAL_SAVE:	#1
      33.  00:4000  (00:C022)           X_SAVE:					#1
      34.  00:4000  (00:C023)           Y_SAVE:					#1
      35.  00:4000  (00:C024)           MEMORIZAMOS_POSICION:	#1
      36.  00:4000  (00:C025)           CONTADOR_DE_MUERTE:		#1
      37.  00:4000  (00:C026)           VIDAS:					#1
      38.  00:4000  (00:C027)           SALTO_COLCHONETA:		#1
      39.  00:4000  (00:C028)           QUIERE_CUERDA:			#1
      40.  00:4000  (00:C029)           CUERDA_PINTANDO:		#2
      41.  00:4000  (00:C02B)           ANIM_CAN:				#1
      42.  00:4000  (00:C02C)           POLVORA_DECIDIDA:		#1
      43.  00:4000  (00:C02D)           MUERTE:					#1												; 0 NO MUERE
      44.  00:4000                      																		; 1 MUERTE CAIDA
      45.  00:4000                      																		; 2 MUERTE TOQUE
      46.  00:4000                      																		; 3 MUERTE RADIACION
      47.  00:4000  (00:C02E)           QUE_SOY:				#1												; 0 WALK
      48.  00:4000                      																		; 1 ASPIRADORA
      49.  00:4000                      																		; 2 FLAUTA
      50.  00:4000                      																		; 3 PARAGUAS
      51.  00:4000                      																		; 4 EXPLOTAO
      52.  00:4000                      																		; 5 VOY EN GLOBO
      53.  00:4000                      																		; 6 CAÑON
      54.  00:4000                      
      55.  00:4000  (00:C02F)           POSICION_BOLSILLO:		#1
      56.  00:4000  (00:C030)           PAUSA_ENTRE_BOTONES:	#1
      57.  00:4000  (00:C031)           BOLSILLO_CHANGE:		#1
      58.  00:4000  (00:C032)           LLEVANDO_CHANGE:		#1
      59.  00:4000  (00:C033)           ATRIBUTOS_SPRITES:		#96												; Y PATRON X ATRIBUTOS
      60.  00:4000                      																		; PROTAGONISTA*4 (0,4,8,12)
      61.  00:4000                      																		; ENEMIGO 1 (16,20,24,28)
      62.  00:4000                      																		; ENEMIGO 2 (32,36,40,44)
      63.  00:4000                      																		; ENEMIGO 3 (48,52,56,60)
      64.  00:4000                      																		; OBJETO PRESENTE 1 (64,68,72,76)
      65.  00:4000                      																		; OBJETO PRESENTE 2 (80.84.88.92)
      66.  00:4000                      
      67.  00:4000  (00:C093)           ATRIBUTOS_USANDO:		#16
      68.  00:4000  (00:C0A3)           ATRIBUTOS_BOLSI_A:		#16
      69.  00:4000  (00:C0B3)           ATRIBUTOS_BOLSI_B:		#16
      70.  00:4000  (00:C0C3)           ATRIBUTOS_BOLSI_C:		#16
      71.  00:4000                      
      72.  00:4000  (00:C0D3)           HYPERTILE_POSIC_1:		#1												; Posic. prota bajo pie izquierdo
      73.  00:4000                      
      74.  00:4000                      ; Objetos del juego
      75.  00:4000                      ; 0 - en su pantalla 1 - esperando a ser colocado 2 - en uso 3 -29 - posición en el bolsillo
      76.  00:4000  (00:C0D4)           MONOCICLO:				#1 ;00
      77.  00:4000  (00:C0D5)           FLASH:					#1 ;01
      78.  00:4000  (00:C0D6)           PELOTA:					#1 ;02
      79.  00:4000  (00:C0D7)           ESPUELA:				#1 ;03
      80.  00:4000  (00:C0D8)           BARRIL:					#1 ;04
      81.  00:4000  (00:C0D9)           PARAGUAS:				#1 ;05
      82.  00:4000  (00:C0DA)           MANIFIESTO:				#1 ;06
      83.  00:4000  (00:C0DB)           SOPLADOR:				#1 ;07
      84.  00:4000  (00:C0DC)           CANON:					#1 ;08
      85.  00:4000  (00:C0DD)           ASPIRADORA:				#1 ;09
      86.  00:4000  (00:C0DE)           PUENTE_EXP:				#1 ;10
      87.  00:4000  (00:C0DF)           FLAUTA:					#1 ;11
      88.  00:4000  (00:C0E0)           BARRA_PLATA:			#1 ;12
      89.  00:4000  (00:C0E1)           PROPULSOR:				#1 ;13
      90.  00:4000  (00:C0E2)           FORMULA:				#1 ;14
      91.  00:4000  (00:C0E3)           MANIBELA:				#1 ;15
      92.  00:4000  (00:C0E4)           BOTON:					#1 ;16
      93.  00:4000  (00:C0E5)           BATERIA:				#1 ;17
      94.  00:4000  (00:C0E6)           PERCHA:					#1 ;18
      95.  00:4000  (00:C0E7)           TRAMPOLIN:				#1 ;19
      96.  00:4000  (00:C0E8)           PILA_ATOMICA:			#1 ;20
      97.  00:4000  (00:C0E9)           ANTI_RADIA:				#1 ;21
      98.  00:4000  (00:C0EA)           TAZA_TE:				#1 ;22
      99.  00:4000  (00:C0EB)           CRISTAL_ENER:			#1 ;23
     100.  00:4000  (00:C0EC)           GLOBO_A:				#1 ;24
     101.  00:4000  (00:C0ED)           GLOBO_B:				#1 ;25
     102.  00:4000  (00:C0EE)           POLVORA_PEQUE:			#1 ;26
     103.  00:4000  (00:C0EF)           POLVORA_MEDIA:			#1 ;27
     104.  00:4000  (00:C0F0)           POLVORA_GRAND:			#1 ;28
     105.  00:4000  (00:C0F1)           CRUZ_PLATA:				#1 ;29
     106.  00:4000  (00:C0F2)           CESTO:					#1 ;30
     107.  00:4000  (00:C0F3)           RESIDUO:				#1 ;31
     108.  00:4000                      ; Valor de los tiles que tiene alrededor el prota
     109.  00:4000  (00:C0F4)           TYLE_POSIC_1:			#2												; bajo pies izquierda
     110.  00:4000  (00:C0F6)           TYLE_POSIC_2:			#2												; bajo pies derecha
     111.  00:4000  (00:C0F8)           TYLE_POSIC_3:			#2												; altura cabeza derecha
     112.  00:4000  (00:C0FA)           TYLE_POSIC_4:			#2												; altura rodilla derecha
     113.  00:4000  (00:C0FC)           TYLE_POSIC_5:			#2												; altura cabeza izquierda
     114.  00:4000  (00:C0FE)           TYLE_POSIC_6:			#2												; altura rodilla izquierda
     115.  00:4000  (00:C100)           TYLE_POSIC_7:			#2												; pisando derecha
     116.  00:4000  (00:C102)           TYLE_POSIC_8:			#2												; pisando izquierda
     117.  00:4000  (00:C104)           TYLE_POSIC_9:			#2												; bajo pies fuera izquierda
     118.  00:4000  (00:C106)           TYLE_POSIC_10:			#2												; bajo pies fuera derecha
     119.  00:4000  (00:C108)           TYLE_POSIC_11:			#2												; bajo pies izquierda a 3 pixeles para la caída del salto
     120.  00:4000  (00:C10A)           TYLE_POSIC_12:			#2												; bajo pies derecha a 3 pixeles para la caída del salto 
     121.  00:4000  (00:C10C)           TYLE_POSIC_13:			#2												;
     122.  00:4000  (00:C10E)           TYLE_POSIC_14:			#2												; altura rodilla izquierda especial para subir escaleras
     123.  00:4000  (00:C110)           TYLE_POSIC_15:			#2												; altura rodilla derecha especial para subir escaleras
     124.  00:4000  (00:C112)           TYLE_POSIC_16:			#2												; bajo pies izquierda especial para subir escaleras
     125.  00:4000  (00:C114)           TYLE_POSIC_17:			#2												; bajo pies derecha especial para subir escaleras
     126.  00:4000  (00:C116)           TYLE_POSIC_18:			#2												; techo en cabeza izquierda
     127.  00:4000  (00:C118)           TYLE_POSIC_19:			#2												; techo en cabeza derecha
     128.  00:4000                      
     129.  00:4000  (00:C11A)           var_cir_1:				#2												; Bytes para uso efímero
     130.  00:4000  (00:C11C)           var_cir_2:				#2
     131.  00:4000  (00:C11E)           var_cir_3:				#2
     132.  00:4000  (00:C120)           var_cir_4:				#2
     133.  00:4000  (00:C122)           var_cir_5:				#2
     134.  00:4000  (00:C124)           var_cir_6:				#2
     135.  00:4000  (00:C126)           var_cir_7:				#2
       5   00:4000                      				include	"RECURSOS BASICOS/CONSTANTES 9990.asm"			; Las constantes que necesita la GFX9000 para funcionar.
       1.  00:4000                      ;;;;;;;;;;;;;;;;;;; G9K CONSTANTES INICIO
       2.  00:4000                      
       3.  00:4000                      ; Mode select defines for SetScreenMode
       4.  00:4000                      
       5.  00:4000  (00:0000)           G9K_MODE_P1			EQU	0	; Pattern mode 0 256 212
       6.  00:4000  (00:0001)           G9K_MODE_P2			EQU	1	; Pattern mode 1 512 212
       7.  00:4000  (00:0002)           G9K_MODE_B1			EQU	2	; Bitmap mode 1 256 212
       8.  00:4000  (00:0003)           G9K_MODE_B2			EQU	3	; Bitmap mode 2 384 240
       9.  00:4000  (00:0004)           G9K_MODE_B3			EQU	4	; Bitmap mode 3 512 212
      10.  00:4000  (00:0005)           G9K_MODE_B4			EQU	5	; Bitmap mode 4 768 240
      11.  00:4000  (00:0006)           G9K_MODE_B5			EQU	6	; Bitmap mode 5 640 400 (VGA)
      12.  00:4000  (00:0007)           G9K_MODE_B6			EQU	7	; Bitmap mode 6 640 480 (VGA)
      13.  00:4000  (00:0008)           G9K_MODE_B7			EQU	8	; Bitmap mode 7 1024 212 (Undocumented v9990 mode)
      14.  00:4000                      
      15.  00:4000                      ; Bit defines G9K_SCREEN_MODE0 (register 6)
      16.  00:4000                      
      17.  00:4000  (00:00C0)           G9K_SCR0_STANDBY	EQU	192	; Stand by mode
      18.  00:4000  (00:0080)           G9K_SCR0_BITMAP		EQU	128	; Select Bit map mode
      19.  00:4000  (00:0040)           G9K_SCR0_P2			EQU	64	; Select P1 mode
      20.  00:4000  (00:0000)           G9K_SCR0_P1			EQU	0	; Select P1 mode
      21.  00:4000  (00:0020)           G9K_SCR0_DTCLK		EQU	32	; Master Dot clock not divided
      22.  00:4000  (00:0010)           G9K_SCR0_DTCLK2		EQU	16	; Master Dot clock divided by 2
      23.  00:4000  (00:0000)           G9K_SCR0_DTCLK4		EQU	0	; Master Dot clock divided by 4
      24.  00:4000  (00:000C)           G9K_SCR0_XIM2048	EQU	12	; Image size = 2048
      25.  00:4000  (00:0008)           G9K_SCR0_XIM1024	EQU	8	; Image size = 1024
      26.  00:4000  (00:0004)           G9K_SCR0_XIM512		EQU	4	; Image size = 512
      27.  00:4000  (00:0000)           G9K_SCR0_XIM256		EQU	0	; Image size = 256
      28.  00:4000  (00:0003)           G9K_SCR0_16BIT		EQU	3	; 16 bits/dot
      29.  00:4000  (00:0002)           G9K_SCR0_8BIT		EQU	2	; 8 bits/dot
      30.  00:4000  (00:0001)           G9K_SCR0_4BIT		EQU	1	; 4 bits/dot
      31.  00:4000  (00:0000)           G9K_SCR0_2BIT		EQU	0	; 2 bits/dot
      32.  00:4000                      
      33.  00:4000                      ; Register defines
      34.  00:4000                      
      35.  00:4000  (00:0000)           G9K_WRITE_ADDR		EQU	0	; W
      36.  00:4000  (00:0003)           G9K_READ_ADDR		EQU	3	; W
      37.  00:4000  (00:0006)           G9K_SCREEN_MODE0	EQU	6	; R/W
      38.  00:4000  (00:0007)           G9K_SCREEN_MODE1	EQU	7	; R/W
      39.  00:4000  (00:0008)           G9K_CTRL			EQU	8	; R/W
      40.  00:4000  (00:0009)           G9K_INT_ENABLE      EQU 9   ; R/W
      41.  00:4000  (00:000A)           G9K_INT_V_LINE_LO	EQU	10	; R/W	
      42.  00:4000  (00:000B)           G9K_INT_V_LINE_HI	EQU	11	; R/W
      43.  00:4000  (00:000C)           G9K_INT_H_LINE		EQU	12	; R/W	
      44.  00:4000  (00:000D)           G9K_PALETTE_CTRL	EQU	13	; W
      45.  00:4000  (00:000E)           G9K_PALETTE_PTR		EQU	14	; W
      46.  00:4000  (00:000F)           G9K_BACK_DROP_COLOR	EQU 15  ; R/W
      47.  00:4000  (00:0010)           G9K_DISPLAY_ADJUST	EQU	16	; R/W
      48.  00:4000  (00:0011)           G9K_SCROLL_LOW_Y	EQU 17  ; R/W
      49.  00:4000  (00:0012)           G9K_SCROLL_HIGH_Y	EQU 18  ; R/W
      50.  00:4000  (00:0013)           G9K_SCROLL_LOW_X	EQU 19  ; R/W
      51.  00:4000  (00:0014)           G9K_SCROLL_HIGH_X	EQU 20  ; R/W
      52.  00:4000  (00:0015)           G9K_SCROLL_LOW_Y_B	EQU 21  ; R/W
      53.  00:4000  (00:0016)           G9K_SCROLL_HIGH_Y_B	EQU 22  ; R/W
      54.  00:4000  (00:0017)           G9K_SCROLL_LOW_X_B	EQU 23  ; R/W
      55.  00:4000  (00:0018)           G9K_SCROLL_HIGH_X_B	EQU 24  ; R/W
      56.  00:4000  (00:0019)           G9K_PAT_GEN_TABLE   EQU 25  ; R/W
      57.  00:4000  (00:001A)           G9K_LCD_CTRL        EQU 26  ; R/W
      58.  00:4000  (00:001B)           G9K_PRIORITY_CTRL  	EQU 27  ; R/W
      59.  00:4000  (00:001C)           G9K_SPR_PAL_CTRL	EQU	28	; W
      60.  00:4000  (00:0020)           G9K_SC_X			EQU	32	; W
      61.  00:4000  (00:0022)           G9K_SC_Y			EQU	34	; W
      62.  00:4000  (00:0024)           G9K_DS_X			EQU	36	; W
      63.  00:4000  (00:0026)           G9K_DS_Y			EQU	38	; W
      64.  00:4000  (00:0028)           G9K_NX				EQU	40	; W
      65.  00:4000  (00:002A)           G9K_NY				EQU	42	; W
      66.  00:4000  (00:002C)           G9K_ARG				EQU	44	; W
      67.  00:4000  (00:002D)           G9K_LOP				EQU	45	; W
      68.  00:4000  (00:002E)           G9K_WRITE_MASK		EQU	46	; W
      69.  00:4000  (00:0030)           G9K_FC				EQU	48	; W
      70.  00:4000  (00:0032)           G9K_BC				EQU	50	; W
      71.  00:4000  (00:0034)           G9K_OPCODE			EQU	52	; W
      72.  00:4000                      
      73.  00:4000                      ; Bit defines G9K_LOP           (Register 45)
      74.  00:4000                      
      75.  00:4000  (00:0010)           G9K_LOP_TP			EQU	16
      76.  00:4000  (00:000C)           G9K_LOP_WCSC		EQU	12
      77.  00:4000  (00:0003)           G9K_LOP_WCNOTSC		EQU	3
      78.  00:4000  (00:0008)           G9K_LOP_WCANDSC		EQU	8
      79.  00:4000  (00:000E)           G9K_LOP_WCORSC		EQU	14
      80.  00:4000  (00:0006)           G9K_LOP_WCEORSC		EQU	6
      81.  00:4000                      
      82.  00:4000                      ; Port defines
      83.  00:4000                      
      84.  00:4000  (00:0060)           G9K_VRAM			EQU	60h	; R/W
      85.  00:4000  (00:0061)           G9K_PALETTE			EQU	61h	; R/W
      86.  00:4000  (00:0062)           G9K_CMD_DATA		EQU	62h	; R/W
      87.  00:4000  (00:0063)           G9K_REG_DATA		EQU	63h	; R/W
      88.  00:4000  (00:0064)           G9K_REG_SELECT		EQU	64h	; W
      89.  00:4000  (00:0065)           G9K_STATUS			EQU	65h	; R
      90.  00:4000  (00:0066)           G9K_INT_FLAG		EQU	66h	; R/W
      91.  00:4000  (00:0067)           G9K_SYS_CTRL		EQU	67h	; W
      92.  00:4000  (00:006F)           G9K_OUTPUT_CTRL     EQU 6Fh ; R/W
      93.  00:4000                      
      94.  00:4000                      ; Bit defines G9K_STATUS
      95.  00:4000                      
      96.  00:4000  (00:0080)           G9K_STATUS_TR       EQU 128
      97.  00:4000  (00:0040)           G9K_STATUS_VR       EQU 64
      98.  00:4000  (00:0020)           G9K_STATUS_HR       EQU 32
      99.  00:4000  (00:0010)           G9K_STATUS_BD       EQU 16
     100.  00:4000  (00:0004)           G9K_STATUS_MSC      EQU 4
     101.  00:4000  (00:0002)           G9K_STATUS_EO       EQU 2
     102.  00:4000  (00:0001)           G9K_STATUS_CE       EQU 1
     103.  00:4000                      
     104.  00:4000                      ; Blitter Commands G9K_OPCODE    (Register 52)
     105.  00:4000                      
     106.  00:4000  (00:0000)           G9K_OPCODE_STOP		EQU	00h	; Command being excuted is stopped 
     107.  00:4000  (00:0010)           G9K_OPCODE_LMMC		EQU	10h ; Data is transferred from CPU to VRAM rectangle area
     108.  00:4000  (00:0020)           G9K_OPCODE_LMMV		EQU	20h ; VRAM rectangle area is painted out
     109.  00:4000  (00:0030)           G9K_OPCODE_LMCM		EQU	30h ; VRAM rectangle area is transferred to CPU
     110.  00:4000  (00:0040)           G9K_OPCODE_LMMM		EQU	40h ; Rectangle area os transferred from VRAM to VRAM
     111.  00:4000  (00:0050)           G9K_OPCODE_CMMC		EQU	050h; CPU character data is color-developed and transferred to VRAM rectangle area
     112.  00:4000  (00:0060)           G9K_OPCODE_CMMK		EQU	060h; Kanji ROM data is is color-developed and transferred to VRAM rectangle area
     113.  00:4000  (00:0070)           G9K_OPCODE_CMMM		EQU	070h; VRAM character data is color-developed and transferred to VRAM rectangle area 
     114.  00:4000  (00:0080)           G9K_OPCODE_BMXL		EQU	080h; Data on VRAM linear address is transferred to VRAM rectangle area
     115.  00:4000  (00:0090)           G9K_OPCODE_BMLX		EQU	090h; VRAM rectangle area is transferred to VRAM linear address 
     116.  00:4000  (00:00A0)           G9K_OPCODE_BMLL		EQU	0A0h; Data on VRAM linear address is transferred to VRAM linear address 
     117.  00:4000  (00:00B0)           G9K_OPCODE_LINE		EQU	0B0h; Straight line is drawer on X-Y co-ordinates
     118.  00:4000  (00:00C0)           G9K_OPCODE_SRCH		EQU	0C0h; Border color co-ordinates on X-Y are detected
     119.  00:4000  (00:00D0)           G9K_OPCODE_POINT	EQU	0D0h; Color code on specified point on X-Y is read out
     120.  00:4000  (00:00E0)           G9K_OPCODE_PSET		EQU	0E0h; Drawing is executed at drawing point on X-Y co-ordinates
     121.  00:4000  (00:00F0)           G9K_OPCODE_ADVN		EQU	0F0h; Drawing point on X-Y co-ordinates is shifted
     122.  00:4000                      
     123.  00:4000                      ; Bit defines G9K_CTRL    (Register 8)
     124.  00:4000                      
     125.  00:4000  (00:0080)           G9K_CTRL_DISP		EQU	128	; Display VRAM
     126.  00:4000  (00:0040)           G9K_CTRL_DIS_SPD	EQU	64	; Disable display sprite (cursor)
     127.  00:4000  (00:0020)           G9K_CTRL_YSE		EQU	32	; /YS Enable
     128.  00:4000  (00:0010)           G9K_CTRL_VWTE		EQU	16	; VRAM Serial data bus control during digitization
     129.  00:4000  (00:0008)           G9K_CTRL_VWM		EQU	8	; VRAM write control during digitization
     130.  00:4000  (00:0004)           G9K_CTRL_DMAE		EQU	4	; Enable DMAQ output
     131.  00:4000  (00:0002)           G9K_CTRL_VRAM512	EQU	2	; VRAM=512KB
     132.  00:4000  (00:0001)           G9K_CTRL_VRAM256	EQU	1	; VRAM=256KB
     133.  00:4000  (00:0000)           G9K_CTRL_VRAM128	EQU	0	; VRAM=128KB
     134.  00:4000                      
     135.  00:4000                      ; Register Select options
     136.  00:4000                      
     137.  00:4000  (00:0040)           G9K_DIS_INC_READ	EQU	64
     138.  00:4000  (00:0080)           G9K_DIS_INC_WRITE	EQU	128
     139.  00:4000                      
     140.  00:4000                      ; Bit defines G9K_SYS_CTRL
     141.  00:4000                      
     142.  00:4000  (00:0002)           G9K_SYS_CTRL_SRS	EQU	2	; Power on reset state
     143.  00:4000  (00:0001)           G9K_SYS_CTRL_MCKIN	EQU	1	; Select MCKIN terminal
     144.  00:4000  (00:0000)           G9K_SYS_CTRL_XTAL	EQU	0	; Select XTAL
     145.  00:4000                      
     146.  00:4000                      ; Bit defines G9K_SCREEN_MODE1 (register 7)
     147.  00:4000                      
     148.  00:4000  (00:0040)           G9K_SCR1_C25M		EQU	64	; Select 640*480 mode
     149.  00:4000  (00:0020)           G9K_SCR1_SM1		EQU	32	; Selection of 263 lines during non interlace , else 262
     150.  00:4000  (00:0010)           G9K_SCR1_SM			EQU	16	; Selection of horizontal frequency 1H=fsc/227.5
     151.  00:4000  (00:0008)           G9K_SCR1_PAL		EQU	8	; Select PAL, else NTSC
     152.  00:4000  (00:0004)           G9K_SCR1_EO			EQU	4	; Select of vertical resoltion of twice the non-interlace resolution
     153.  00:4000  (00:0002)           G9K_SCR1_IL			EQU	2	; Select Interlace
     154.  00:4000  (00:0001)           G9K_SCR1_HSCN		EQU	1	; Select High scan mode
     155.  00:4000                      
     156.  00:4000                      ;;;;;;;;;;;;;;;;;;; G9K CONSTANTES FIN
     157.  00:4000                      
     158.  00:4000  (00:E008)           vram_first_pattern_name:equ 0000E008h
     159.  00:4000                      
     160.  00:4000                      ;indices a la cabecera del fichero g9b
     161.  00:4000                      
     162.  00:4000  (00:0005)           g9b_object_bitdepth			equ 5 	;byte       ; 2,4,8 or 16 bit
     163.  00:4000  (00:0006)           g9b_object_colortype		equ 6 	;byte	    ; 0=64 color palette mode,64=256 color fixed ,128=yjk and 192=yuv mode
     164.  00:4000  (00:0007)           g9b_object_nrcolors			equ 7 	;byte       ; number of colors in palette mode
     165.  00:4000  (00:0008)           g9b_object_width			equ 8 	;word	    ; width
     166.  00:4000  (00:000A)           g9b_object_height      		equ 10 	;word       ; height
     167.  00:4000  (00:000C)           g9b_object_compression		equ 12 	;byte       ; 0 = no compression, other value = compression used
     168.  00:4000  (00:000D)           g9b_object_datasize			equ 13 	;d24        ; 24 bit data size
     169.  00:4000  (00:0010)           g9b_object_palete_pointer 	equ 16
     170.  00:4000                      
     171.  00:4000  (00:E001)           puntero_g9b: 			equ 0000E001h
     172.  00:4000  (00:E003)           block_size: 			equ 0000E003h
     173.  00:4000  (00:E005)           blocks: 				equ 0000E005h
     174.  00:4000  (00:E006)           source_length: 			equ 0000E006h
       6   00:4000                      				include	"RECURSOS BASICOS/MACROS 9990.asm"				; Las macros que necesita la GFX9000 para funcionar.
       1.  00:4000                      ;;;;;;;;;;;;;;;;;;;; G9K MACROS COMIENZO
       2.  00:4000                      
       3.  00:4000                      		MACRO G9kReadReg register
       4.  00:4000                    < 
       5.  00:4000                    < ; Lee un registro de Gfx9000
       6.  00:4000                    < ; Resultado queda en A
       7.  00:4000                    < 
       8.  00:4000                    < 		LD		A,register
       9.  00:4000                    < 		OUT		(G9K_REG_SELECT),A
      10.  00:4000                    < 		IN		A,(G9K_REG_DATA)
      11.  00:4000                    < 		
      12.  00:4000                    < 		ENDM
      13.  00:4000                      
      14.  00:4000                      ; ---------------------------------------------
      15.  00:4000                      
      16.  00:4000                      		MACRO	G9kCmdWait
      17.  00:4000                    < 
      18.  00:4000                    < ; Espera a que se complete la ejecución del comando
      19.  00:4000                    < ; Modifica A
      20.  00:4000                    < 
      21.  00:4000                    < 		IN		A,(G9K_STATUS)
      22.  00:4000                    < 		RRA
      23.  00:4000                    < 		JR		C,$-3
      24.  00:4000                    < 		
      25.  00:4000                    < 		ENDM
      26.  00:4000                      
      27.  00:4000                      ; ---------------------------------------------
      28.  00:4000                      
      29.  00:4000                      		MACRO G9kWriteReg register,data
      30.  00:4000                    < 
      31.  00:4000                    < ; escribe  un registro de Gfx9000
      32.  00:4000                    < ; modifica: A
      33.  00:4000                    < 
      34.  00:4000                    < 		LD		A,register
      35.  00:4000                    < 		OUT		(G9K_REG_SELECT),A
      36.  00:4000                    < 		LD		A,data
      37.  00:4000                    < 		OUT		(G9K_REG_DATA),A
      38.  00:4000                    < 		
      39.  00:4000                    < 		ENDM
      40.  00:4000                      
      41.  00:4000                      ; ---------------------------------------------
      42.  00:4000                      
      43.  00:4000                              MACRO G9kWaitVsync
      44.  00:4000                    < 
      45.  00:4000                    < ; Espera a la sincronización de Video
      46.  00:4000                    < 
      47.  00:4000                    <         IN      A,(G9K_STATUS)
      48.  00:4000                    <         AND     A,G9K_STATUS_VR
      49.  00:4000                    < 		JR		NZ,$-4
      50.  00:4000                    < 
      51.  00:4000                    <         IN      A,(G9K_STATUS)
      52.  00:4000                    <         AND     A,G9K_STATUS_VR
      53.  00:4000                    < 		JR		Z,$-4
      54.  00:4000                    <         
      55.  00:4000                    <         ENDM
      56.  00:4000                      
      57.  00:4000                      ; ---------------------------------------------
      58.  00:4000                      		
      59.  00:4000                      		MACRO G9kWaitComReady	
      60.  00:4000                    < 
      61.  00:4000                    < ; Espera a que los datos del comando estén listos	
      62.  00:4000                    < 
      63.  00:4000                    < 		IN      A,(G9K_STATUS)
      64.  00:4000                    < 		RLA
      65.  00:4000                    < 		JR		NC,$-3
      66.  00:4000                    < 
      67.  00:4000                    < 		ENDM
      68.  00:4000                      
      69.  00:4000                      
      70.  00:4000                      ; ---------------------------------------------
      71.  00:4000                      
      72.  00:4000                      		MACRO 	ADD_HL_A												; add A to HL	
      73.  00:4000                    < 		add		a,l
      74.  00:4000                    < 		ld		l,a
      75.  00:4000                    < 		jr		nc,1f
      76.  00:4000                    < 		inc		h
      77.  00:4000                    < 1		
      78.  00:4000                    < 		ENDM	
      79.  00:4000                      
      80.  00:4000                      
      81.  00:4000                      ; ---------------------------------------------
      82.  00:4000                      
      83.  00:4000                      macro	GET_BIT_FROM_BITSTREAM
      84.  00:4000                    < 
      85.  00:4000                    < 		add		a,a														; cambiar a nuevo bit
      86.  00:4000                    < 		jp		nz,.done												; Si el valor restante no es cero, hemos terminado
      87.  00:4000                    < 		ld		a,[hl]													; obtener 8 bits de flujo de bits
      88.  00:4000                    < 		inc		hl														; aumentar la dirección de datos de origen
      89.  00:4000                    < 		rla                    											; [¡¡¡¡El bit 0 será establecido!!!!]
      90.  00:4000                    < 
      91.  00:4000                    < .done:
      92.  00:4000                    < 
      93.  00:4000                    < endmacro
      94.  00:4000                      
      95.  00:4000                      ;;;;;;;;;;;;;;;;;;;; G9K MACROS FIN
       7   00:4000                      				
       8   00:4000                      				org		#4000											; Esto es la dirección de memoria donde va a volcar.
       9   00:4000                      				
      10   00:4000  41 42               				db 		"AB"											; Esta es la cabecera que le indicará al ordenador que esto es un archivo Rom y cómo debe salvarlo.
      11   00:4002  10 40               				word 	INICIO											; Inicio es un ejemplo, pero es exactamente donde empezará a ejecutarse el programa.
      12   00:4004                      				word 	0,0,0,0,0,0										; Esto siempre tal cual.
      12   00:4004  00 00 00 00 00 00 00 00 00 00 00 00 
      13   00:4010                      
      14   00:4010                      INICIO:
      15   00:4010                      
      16   00:4010  F3                  				di														; Desconectamos las interrupciones.									
      17   00:4011  ED 56               				im 		1												; Modo de interrupciones 1.
      18   00:4013                      
      19   00:4013  3E C9               				ld		a,#C9											;a tiene el valor de ret
      20   00:4015  32 9F FD            				ld		(#FD9F),a										;colocamos ese ret en el gancho H.Timi POR SI EL ORDENADOR TUVIERA ALGO (ALGUN MSX 2 CONTROL DE DISQUETERA)
      21   00:4018  32 9A FD            				ld		(#FD9A),a										;colocamos ese ret en el gancho H.Key POR SI EL ORDENADOR TUVIERA ALGO
      22   00:401B                      		
      23   00:401B  31 80 F3            				ld 		sp,#F380										; Colocamos el puntero de la pila en la dirección de memoria #F380
      24   00:401E                      
      25   00:401E                      AMPLIA_RAM:																; Ampliaremos la ram usada a espadios 1 y 2.
      26   00:401E                      		
      27   00:401E  CD 27 40            				call 	BUSCA_SLOT										; Aquí repite el bucle que hace la magia
      28   00:4021  CD 24 00            				call 	ENASLT											; Se define en el apartado BIOS, es referencia a dirección de memoria #0024
      29   00:4024                      																		; y sirve para ampliar el banco de memoria usado de 16k a 32k
      30   00:4024  C3 48 40            				jp		PREPARA_BANCOS									; Regresamos a la rutina general
      31   00:4027                      
      32   00:4027                      BUSCA_SLOT:																; Bucle de la magia
      33   00:4027                      
      34   00:4027  CD 38 01            				call 	RSLREG											; Se define en el apartado BIOS, es referencia a dirección de memoria #0138
      35   00:402A                      																		; leerá el registro del slot primario lo saca en A																		; 76543210
      36   00:402A  0F                  				rrca													; 07654321	Carry = 0
      37   00:402B  0F                  				rrca													; 10765432	Carry = 1
      38   00:402C  E6 03               				and 	3												; xxxxxxxx and	00000011 = 000000xx 
      39   00:402E  4F                  				ld 		c,a												; c = 000000xx	a = 000000xx
      40   00:402F  06 00               				ld 		b,0												; b = 00000000
      41   00:4031  21 C1 FC            				ld 		hl,0FCC1h										; hl = 1111110011000001
      42   00:4034  09                  				add		hl,bc											; hl = 1111110011000001 + 00000000000000xx
      43   00:4035  7E                  				ld 		a,(hl)											; a = hl
      44   00:4036  E6 80               				and 	080h											; a = hl and 10000000
      45   00:4038  B1                  				or 		c												; a =  (hl and 10000000) or 000000xx
      46   00:4039  4F                  				ld 		c,a												; c = (hl and 10000000) or 000000xx
      47   00:403A  23                  				inc 	hl											
      48   00:403B  23                  				inc 	hl
      49   00:403C  23                  				inc		hl
      50   00:403D  23                  				inc 	hl												; hl = (1111110011000001 + 00000000000000xx)+00000100
      51   00:403E  7E                  				ld 		a,(hl)											; a = hl
      52   00:403F  E6 0C               				and 	0Ch												; a = hl and 00001100
      53   00:4041  B1                  				or 		c												; a = (hl and 00001100) or (hl and 10000000) or 000000xx
      54   00:4042  26 80               				ld 		h,080h											; h = 10000000
      55   00:4044  32 00 C0            				ld 		(SLOTVAR),a										; Se guarda el valor de a en esta variable que suele ser la primera de las variables en el banco 3 
      56   00:4047                      																		; A partir de la dirección de memoria #C000				
      57   00:4047  C9                  				ret														; Regresamos
      58   00:4048                      				
      59   00:4048                      PREPARA_BANCOS:
      60   00:4048                      
      61   00:4048  AF                  				xor		a
      62   00:4049  32 00 60            				ld		[#6000],a										; Banco 1, pagina 0 del MEGAROM.			
      63   00:404C                      
      64   00:404C  3E 01               				ld		a,1
      65   00:404E  CD 82 53            				call	CAMBIA_PAGINA_2									; Banco 2, pagina 1 del MEGAROM.		
      66   00:4051                      		
      67   00:4051                      LIMPIA_MEMORIA:
      68   00:4051                      
      69   00:4051  AF                  				xor		a												; Rutina para limpiar la memoria.
      70   00:4052  21 00 C0            				ld		hl,#c000
      71   00:4055  77                  				ld		[hl],a
      72   00:4056  11 01 C0            				ld 		de,#c001
      73   00:4059  01 68 31            				ld		bc,(#f169 - #c000) - 1					
      74   00:405C  ED B0               				ldir
      75   00:405E                      
      76   00:405E                      PREPARA_PANTALLA_MSX:
      77   00:405E                      
      78   00:405E  AF                  				xor		a												; Quitamos el sonido Click de las teclas.								
      79   00:405F  32 DB F3            				ld		[CLIKSW],a
      80   00:4062                      
      81   00:4062  3E 00               				ld		a,0												; SCREEN 0 (recordemos que vamos a trabajar en la pantalla de V9990 así que no afecta a los dibujos de vram MSX)
      82   00:4064  CD 5F 00            				call	CHGMOD
      83   00:4067                      
      84   00:4067  3E 00               				ld		a,0												; a 	= el valor que vamos a poner
      85   00:4069  01 C0 03            				ld		bc,40*24										; bc	= longitud del area a rellenar con el dato A
      86   00:406C  21 00 00            				ld		hl,0											; hl	= dirección en la que empieza a pintar
      87   00:406F  CD 56 00            				call	FILVRM											; Limpiamos toda esta zona de la VRAM 				
      88   00:4072                      
      89   00:4072                      DETECTAMOS_GFX9000:
      90   00:4072                      
      91   00:4072  CD E1 53            				call    G9kDetecta										; Esta secuencia detecta la GFX9000
      92   00:4075  C4 89 53            				call    nz,GFX9990_NO_DETECTADA
      93   00:4078  CD 97 53            				call	GFX9990_DETECTADA
      94   00:407B                      
      95   00:407B  CD 16 54            				CALL    G9kReset										; Esta secuencia limpia la vram de la GFX9000
      96   00:407E                      
      97   00:407E  CD 7D 54            				call	setup_graphic_mode_and_blitter
      98   00:4081                      
      99   00:4081  FB                  				ei
     100   00:4082                      									
     101   00:4082  CD BA 54            				call	G9kSpritesEnable
     102   00:4085                      				
     103   00:4085                      				G9kWriteReg G9K_PRIORITY_CTRL,00000101B
     103   00:4085                    > 
     103   00:4085                    > 
     103   00:4085                    > 
     103   00:4085                    > 
     103   00:4085  3E 1B             >   LD  A,register
     103   00:4087  D3 64             >   OUT  (G9K_REG_SELECT),A
     103   00:4089  3E 05             >   LD  A,data
     103   00:408B  D3 63             >   OUT  (G9K_REG_DATA),A
     103   00:408D                    >   
     104   00:408D                      
     105   00:408D  CD C5 54            				call	clean_pattern_model_table
     106   00:4090                      
     107   00:4090  CD 07 55            				call	setup_nametable	
     108   00:4093                      
     109   00:4093                      				G9kWriteReg 25,#04										; escribe en el registro 25 para que la lectura de sprites sea en la dirección #10000
     109   00:4093                    > 
     109   00:4093                    > 
     109   00:4093                    > 
     109   00:4093                    > 
     109   00:4093  3E 19             >   LD  A,register
     109   00:4095  D3 64             >   OUT  (G9K_REG_SELECT),A
     109   00:4097  3E 04             >   LD  A,data
     109   00:4099  D3 63             >   OUT  (G9K_REG_DATA),A
     109   00:409B                    >   
     110   00:409B                      				G9kWriteReg 18,#80										; scroll y a 256 lineas
     110   00:409B                    > 
     110   00:409B                    > 
     110   00:409B                    > 
     110   00:409B                    > 
     110   00:409B  3E 12             >   LD  A,register
     110   00:409D  D3 64             >   OUT  (G9K_REG_SELECT),A
     110   00:409F  3E 80             >   LD  A,data
     110   00:40A1  D3 63             >   OUT  (G9K_REG_DATA),A
     110   00:40A3                    >   
     111   00:40A3                      
     112   00:40A3                      				G9kWriteReg	G9K_BACK_DROP_COLOR,#10
     112   00:40A3                    > 
     112   00:40A3                    > 
     112   00:40A3                    > 
     112   00:40A3                    > 
     112   00:40A3  3E 0F             >   LD  A,register
     112   00:40A5  D3 64             >   OUT  (G9K_REG_SELECT),A
     112   00:40A7  3E 10             >   LD  A,data
     112   00:40A9  D3 63             >   OUT  (G9K_REG_DATA),A
     112   00:40AB                    >   
     113   00:40AB                      				
     114   00:40AB  AF                  				xor		a
     115   00:40AC  32 0A C0            				ld		(posicion_scroll_y_B),a
     116   00:40AF  32 04 C0            				ld		(posicion_scroll_y_A),a
     117   00:40B2                      
     118   00:40B2                      LIMPIAMOS_PATRONES_DE_A:
     119   00:40B2                      
     120   00:40B2  1E 07               				ld		e,#7
     121   00:40B4  21 00 C0            				ld		hl,#c000
     122   00:40B7  D5                  				push	de
     123   00:40B8  E5                  				push	hl
     124   00:40B9  CD F8 53            				call	G9kSetVramWrite
     125   00:40BC                      
     126   00:40BC  06 20               				ld		b,32
     127   00:40BE                      
     128   00:40BE                      .bucle_limpieza_1:
     129   00:40BE                      
     130   00:40BE  C5                  				push	bc
     131   00:40BF  06 80               				ld		b,128
     132   00:40C1                      
     133   00:40C1                      .bucle_limpieza_2:
     134   00:40C1                      
     135   00:40C1  C5                  				push	bc
     136   00:40C2  1E 00               				ld		e,0
     137   00:40C4  21 02 00            				ld		hl,2
     138   00:40C7  CD B9 55            				call	OUT_ESCRIBE_UN_BYTE
     139   00:40CA  C1                  				pop		bc
     140   00:40CB  10 F4               				djnz	.bucle_limpieza_2
     141   00:40CD  C1                  				pop		bc
     142   00:40CE  10 EE               				djnz	.bucle_limpieza_1
     143   00:40D0                      
     144   00:40D0                      PRESENTACION:
     145   00:40D0                      
     146   00:40D0                      			; Aquí mostramos la historia con 5 fotos
     147   00:40D0                      
     148   00:40D0                      MENU:
     149   00:40D0                      
     150   00:40D0                      			; Aquí mostramos título (plano b), un rotativo de personajes (sprites), varias imágenes del meteorito hacia la tierra (plano 1 y sprites)
     151   00:40D0                      
     152   00:40D0                      CARGAMOS_TILES_DE_A:
     153   00:40D0                      
     154   00:40D0  3E 02               				ld		a,2
     155   00:40D2  F5                  				push	af
     156   00:40D3  21 00 40            				ld		hl,16384
     157   00:40D6  E5                  				push	hl
     158   00:40D7  3E 01               				ld		a,1
     159   00:40D9  F5                  				push	af
     160   00:40DA  21 00 40            				ld		hl,16384
     161   00:40DD  E5                  				push	hl
     162   00:40DE  21 00 00            				ld		hl,0
     163   00:40E1  E5                  				push	hl
     164   00:40E2  E5                  				push	hl
     165   00:40E3                      				
     166   00:40E3  CD C6 55            				call	VUELCA_BIN_EN_V9990
     167   00:40E6                      
     168   00:40E6                      CARGAMOS_COLOR_TILES_A:
     169   00:40E6                      
     170   00:40E6  21 22 53            				ld		hl,DATA_COLOR_TILES							; Cargamos en la paleta 1 los 16 colores
     171   00:40E9  3E 10               				ld		a,16
     172   00:40EB  0E 02               				ld		c,2
     173   00:40ED  CD 82 55            				call	carga_paleta_g9b
     174   00:40F0                      
     175   00:40F0                      				G9kWaitVsync								
     175   00:40F0                    > 
     175   00:40F0                    > 
     175   00:40F0                    > 
     175   00:40F0  DB 65             >         IN      A,(G9K_STATUS)
     175   00:40F2  E6 40             >         AND     A,G9K_STATUS_VR
     175   00:40F4  20 FA             >   JR  NZ,$-4
     175   00:40F6                    > 
     175   00:40F6  DB 65             >         IN      A,(G9K_STATUS)
     175   00:40F8  E6 40             >         AND     A,G9K_STATUS_VR
     175   00:40FA  28 FA             >   JR  Z,$-4
     175   00:40FC                    >         
     176   00:40FC                      				G9kWaitVsync								
     176   00:40FC                    > 
     176   00:40FC                    > 
     176   00:40FC                    > 
     176   00:40FC  DB 65             >         IN      A,(G9K_STATUS)
     176   00:40FE  E6 40             >         AND     A,G9K_STATUS_VR
     176   00:4100  20 FA             >   JR  NZ,$-4
     176   00:4102                    > 
     176   00:4102  DB 65             >         IN      A,(G9K_STATUS)
     176   00:4104  E6 40             >         AND     A,G9K_STATUS_VR
     176   00:4106  28 FA             >   JR  Z,$-4
     176   00:4108                    >         
     177   00:4108                      
     178   00:4108                      CARGAMOS_TILES_DE_B:
     179   00:4108                      
     180   00:4108  3E 05               				ld		a,5
     181   00:410A  F5                  				push	af
     182   00:410B  21 00 40            				ld		hl,16384
     183   00:410E  E5                  				push	hl
     184   00:410F  3E 04               				ld		a,4
     185   00:4111  F5                  				push	af
     186   00:4112  21 00 40            				ld		hl,16384
     187   00:4115  E5                  				push	hl
     188   00:4116  21 00 00            				ld		hl,0
     189   00:4119  E5                  				push	hl
     190   00:411A  11 04 00            				ld		de,4
     191   00:411D  D5                  				push	de
     192   00:411E                      				
     193   00:411E  CD C6 55            				call	VUELCA_BIN_EN_V9990
     194   00:4121                      
     195   00:4121                      CARGAMOS_COLOR_TILES_B:
     196   00:4121                      
     197   00:4121  21 52 53            				ld		hl,DATA_COLOR_MARCADOR							; Cargamos en la paleta 1 los 16 colores
     198   00:4124  3E 10               				ld		a,16
     199   00:4126  0E 01               				ld		c,1
     200   00:4128  CD 82 55            				call	carga_paleta_g9b
     201   00:412B                      
     202   00:412B                      CARGAMOS_COLOR_SPRITES_PROTA:
     203   00:412B                      
     204   00:412B  21 F2 52            				ld		hl,DATA_COLOR_EXPLO							; Cargamos en la paleta 1 los 16 colores
     205   00:412E  3E 10               				ld		a,16
     206   00:4130  0E 00               				ld		c,0
     207   00:4132  CD 82 55            				call	carga_paleta_g9b
     208   00:4135                      
     209   00:4135  CD A3 55            				call    G9kDisplayEnable
     210   00:4138                      
     211   00:4138                      .CARGAMOS_SPRITES:
     212   00:4138                      
     213   00:4138  3E 07               				ld		a,7
     214   00:413A  F5                  				push	af
     215   00:413B  21 00 40            				ld		hl,16384
     216   00:413E  E5                  				push	hl
     217   00:413F  3E 06               				ld		a,6
     218   00:4141  F5                  				push	af
     219   00:4142  21 00 40            				ld		hl,16384
     220   00:4145  E5                  				push	hl
     221   00:4146  21 00 00            				ld		hl,0
     222   00:4149  E5                  				push	hl
     223   00:414A  21 01 00            				ld		hl,1
     224   00:414D  E5                  				push	hl
     225   00:414E                      				
     226   00:414E  CD C6 55            				call	VUELCA_BIN_EN_V9990
     227   00:4151                      
     228   00:4151                      VARIABLES_INICIO_PARTIDA:
     229   00:4151                      
     230   00:4151  3E 14               				ld		a,20						; PANTALLA 20
     231   00:4153  32 0C C0            				ld		(PANTALLA_ACTUAL),a
     232   00:4156  32 21 C0            				ld		(PANTALLA_ACTUAL_SAVE),a
     233   00:4159  3E 01               				ld		a,1
     234   00:415B  32 16 C0            				ld		(POSICION_ACTUAL_SCROLL),a
     235   00:415E  3E 07               				ld		a,7
     236   00:4160  32 12 C0            				ld		(BYTE_VRAM_EMPIEZA_E),a
     237   00:4163  21 00 C0            				ld		hl,#c000
     238   00:4166  22 14 C0            				ld		(BYTE_VRAM_EMPIEZA_HL),hl
     239   00:4169  AF                  				xor		a
     240   00:416A  32 17 C0            				ld		(DIRECCION_DONDE_VAMOS),a
     241   00:416D  32 1B C0            				ld		(POSE_PROTA),a
     242   00:4170  32 19 C0            				ld		(PROCESO_DE_SALTO),a
     243   00:4173  32 18 C0            				ld		(SPACE_PULSADO),a
     244   00:4176  32 1E C0            				ld		(PERSONAJE),a
     245   00:4179  32 2F C0            				ld		(POSICION_BOLSILLO),a
     246   00:417C  32 1F C0            				ld		(DETRAS_DE_POZO),a
     247   00:417F  32 2D C0            				ld		(MUERTE),a
     248   00:4182  3E 58               				ld		a,32*3-8
     249   00:4184  32 23 C0            				ld		(Y_SAVE),a
     250   00:4187  3E 5A               				ld		a,90
     251   00:4189  32 22 C0            				ld		(X_SAVE),a
     252   00:418C  3E 04               				ld		a,4
     253   00:418E  32 26 C0            				ld		(VIDAS),a
     254   00:4191  06 10               				ld		b,16
     255   00:4193  11 01 00            				ld		de,1
     256   00:4196  DD 21 33 C0         				ld		ix,ATRIBUTOS_SPRITES
     257   00:419A  FD 21 E2 52         				ld		iy,VALORES_INICIALES_ATRIBUTOS_SPRITES
     258   00:419E                      
     259   00:419E                      .bucle_atributos_sprites_iniciales:
     260   00:419E                      
     261   00:419E  FD 7E 00            				ld		a,(iy)
     262   00:41A1  DD 77 00            				ld		(ix),a
     263   00:41A4  DD 19               				add		ix,de
     264   00:41A6  FD 19               				add		iy,de
     265   00:41A8  10 F4               				djnz	.bucle_atributos_sprites_iniciales
     266   00:41AA                      
     267   00:41AA  3E 03               				ld		a,3
     268   00:41AC  CD 82 53            				call	CAMBIA_PAGINA_2
     269   00:41AF                      
     270   00:41AF                      PINTA_LA_PANTALLA_DE_INICIO:
     271   00:41AF                      
     272   00:41AF  3A 26 C0            			ld		a,(VIDAS)
     273   00:41B2  B7                  			or		a
     274   00:41B3  CA B2 40            			jp		z,LIMPIAMOS_PATRONES_DE_A
     275   00:41B6                      
     276   00:41B6  3A 2D C0            			ld		a,(MUERTE)
     277   00:41B9  B7                  			or		a
     278   00:41BA  CA EC 41            			jp		z,.PINTA_LA_PANTALLA_DE_INICIO_1
     279   00:41BD                      			
     280   00:41BD  AF                  			xor		a
     281   00:41BE  32 2D C0            			ld		(MUERTE),a
     282   00:41C1  32 25 C0            			ld		(CONTADOR_DE_MUERTE),a
     283   00:41C4  3A 21 C0            			ld		a,(PANTALLA_ACTUAL_SAVE)
     284   00:41C7  32 0C C0            			ld		(PANTALLA_ACTUAL),a
     285   00:41CA                      
     286   00:41CA  DD 21 33 C0         			ld		ix,ATRIBUTOS_SPRITES
     287   00:41CE  AF                  			xor		a
     288   00:41CF  CD 16 51            			call	COMUN_PATRON_CUATRO_SPRITES
     289   00:41D2  3E 00               			ld      a,0000000b
     290   00:41D4  32 1B C0            			ld		(POSE_PROTA),a
     291   00:41D7  DD 77 03            			ld		(ix+3),a
     292   00:41DA  DD 77 07            			ld		(ix+7),a
     293   00:41DD  32 17 C0            			ld		(DIRECCION_DONDE_VAMOS),a
     294   00:41E0  3A 23 C0            			ld		a,(Y_SAVE)
     295   00:41E3  CD 06 51            			call	COMUN_Y_CUATRO_SPRITES
     296   00:41E6  3A 22 C0            			ld		a,(X_SAVE)
     297   00:41E9  CD F6 50            			call	COMUN_X_CUATRO_SPRITES
     298   00:41EC                      
     299   00:41EC                      .PINTA_LA_PANTALLA_DE_INICIO_1:
     300   00:41EC                      
     301   00:41EC  3E 01               			ld		a,1
     302   00:41EE  32 24 C0            			ld		(MEMORIZAMOS_POSICION),a
     303   00:41F1  CD 00 80            			call	PINTAMOS_PANTALLA_EN_LA_QUE_ESTAMOS
     304   00:41F4                      
     305   00:41F4                      COLOCAMOS_AL_PROTA_SI_VENIMOS_DE_OTRA_PANTALLA:
     306   00:41F4                      
     307   00:41F4  3A 17 C0            			ld		a,(DIRECCION_DONDE_VAMOS)
     308   00:41F7  FE 03               			cp		3
     309   00:41F9  CA 0E 42            			jp		z,.poner_a_la_izquierda
     310   00:41FC  FE 07               			cp		7
     311   00:41FE  CA 1A 42            			jp		z,.poner_a_la_derecha
     312   00:4201  FE 05               			cp		5
     313   00:4203  CA 26 42            			jp		z,.poner_arriba
     314   00:4206  FE 01               			cp		1
     315   00:4208  CA 48 42            			jp		z,.poner_abajo
     316   00:420B                      
     317   00:420B  C3 5E 42            			jp		.muestra_sprites
     318   00:420E                      
     319   00:420E                      .poner_a_la_izquierda:
     320   00:420E                      
     321   00:420E  DD 21 33 C0         			ld		ix,ATRIBUTOS_SPRITES
     322   00:4212  3E 02               			ld		a,2
     323   00:4214  CD F6 50            			call	COMUN_X_CUATRO_SPRITES
     324   00:4217  C3 5E 42            			jp		.muestra_sprites
     325   00:421A                      
     326   00:421A                      .poner_a_la_derecha:
     327   00:421A                      
     328   00:421A  DD 21 33 C0         			ld		ix,ATRIBUTOS_SPRITES
     329   00:421E  3E E0               			ld		a,255-31
     330   00:4220  CD F6 50            			call	COMUN_X_CUATRO_SPRITES
     331   00:4223  C3 5E 42            			jp		.muestra_sprites
     332   00:4226                      
     333   00:4226                      .poner_arriba:
     334   00:4226                      
     335   00:4226  DD 21 33 C0         			ld		ix,ATRIBUTOS_SPRITES
     336   00:422A  3E 00               			ld		a,0
     337   00:422C  CD 06 51            			call	COMUN_Y_CUATRO_SPRITES
     338   00:422F  3A 0C C0            			ld		a,(PANTALLA_ACTUAL)
     339   00:4232  FE 18               			cp		24
     340   00:4234  C2 5E 42            			jp		nz,.muestra_sprites
     341   00:4237  DD 21 33 C0         			ld		ix,ATRIBUTOS_SPRITES
     342   00:423B  DD 7E 01            			ld		a,(ix+1)
     343   00:423E  F6 40               			or		01000000b
     344   00:4240  E6 5F               			and		01011111b
     345   00:4242  CD 16 51            			call	COMUN_PATRON_CUATRO_SPRITES
     346   00:4245  C3 5E 42            			jp		.muestra_sprites
     347   00:4248                      
     348   00:4248                      .poner_abajo:
     349   00:4248                      
     350   00:4248  DD 21 33 C0         			ld		ix,ATRIBUTOS_SPRITES
     351   00:424C  3A 0C C0            			ld		a,(PANTALLA_ACTUAL)
     352   00:424F  FE 0C               			cp		12
     353   00:4251  C2 59 42            			jp		nz,.poner_abajo_1
     354   00:4254  3E 4B               			ld		a,#4B
     355   00:4256  C3 5B 42            			jp		.poner_abajo_2
     356   00:4259                      
     357   00:4259                      .poner_abajo_1:
     358   00:4259                      
     359   00:4259  3E 6E               			ld		a,110
     360   00:425B                      
     361   00:425B                      .poner_abajo_2:
     362   00:425B                      
     363   00:425B  CD 06 51            			call	COMUN_Y_CUATRO_SPRITES
     364   00:425E                      
     365   00:425E                      .muestra_sprites:
     366   00:425E                      
     367   00:425E  CD 9E 84            			call	COSAS_ESPECIALES_POR_PANTALLA
     368   00:4261                      
     369   00:4261  DD 21 33 C0         			ld		ix,ATRIBUTOS_SPRITES
     370   00:4265  DD 7E 03            			ld		a,(ix+3)
     371   00:4268  F6 20               			or		00100000b
     372   00:426A  E6 EF               			and		11101111b
     373   00:426C  CD 27 51            			call	COMUN_ATRIBUTOS_CUATRO_SPRITES
     374   00:426F                      
     375   00:426F                      .muestra_vidas:
     376   00:426F                      
     377   00:426F  1E 03               			ld		e,3
     378   00:4271  21 A0 FE            			ld		hl,#fe00+4*4*10
     379   00:4274  CD F8 53            			call	G9kSetVramWrite
     380   00:4277                      
     381   00:4277  06 1C               			ld		b,28
     382   00:4279  3A 26 C0            			ld		a,(VIDAS)
     383   00:427C  FE 04               			cp		4
     384   00:427E  CA A0 42            			jp		z,.vidas_3
     385   00:4281  FE 03               			cp		3
     386   00:4283  CA 99 42            			jp		z,.vidas_2
     387   00:4286  FE 02               			cp		2
     388   00:4288  CA 92 42            			jp		z,.vidas_1
     389   00:428B                      
     390   00:428B                      .vidas_0:
     391   00:428B                      
     392   00:428B  DD 21 03 89         			ld		ix,ATRIBUTOS_VIDAS_0
     393   00:428F  C3 A4 42            			jp		.bucle_vidas
     394   00:4292                      			
     395   00:4292                      .vidas_1:
     396   00:4292                      
     397   00:4292  DD 21 CB 88         			ld		ix,ATRIBUTOS_VIDAS_1
     398   00:4296  C3 A4 42            			jp		.bucle_vidas
     399   00:4299                      			
     400   00:4299                      .vidas_2:
     401   00:4299                      
     402   00:4299  DD 21 93 88         			ld		ix,ATRIBUTOS_VIDAS_2
     403   00:429D  C3 A4 42            			jp		.bucle_vidas
     404   00:42A0                      			
     405   00:42A0                      .vidas_3:
     406   00:42A0                      
     407   00:42A0  DD 21 5B 88         			ld		ix,ATRIBUTOS_VIDAS_3
     408   00:42A4                      			
     409   00:42A4                      
     410   00:42A4                      .bucle_vidas:
     411   00:42A4                      
     412   00:42A4  C5                  			push	bc
     413   00:42A5  DD 6E 00            			ld		l,(ix)
     414   00:42A8  DD 66 01            			ld		h,(ix+1)
     415   00:42AB                      
     416   00:42AB  CD B9 55            			call	OUT_ESCRIBE_UN_BYTE
     417   00:42AE                      
     418   00:42AE  11 02 00            			ld		de,2
     419   00:42B1  DD 19               			add		ix,de
     420   00:42B3                      
     421   00:42B3  C1                  			pop		bc
     422   00:42B4  10 EE               			djnz	.bucle_vidas
     423   00:42B6                      
     424   00:42B6                      BUCLE_CENTRAL:
     425   00:42B6                      
     426   00:42B6                      			G9kWaitVsync
     426   00:42B6                    > 
     426   00:42B6                    > 
     426   00:42B6                    > 
     426   00:42B6  DB 65             >         IN      A,(G9K_STATUS)
     426   00:42B8  E6 40             >         AND     A,G9K_STATUS_VR
     426   00:42BA  20 FA             >   JR  NZ,$-4
     426   00:42BC                    > 
     426   00:42BC  DB 65             >         IN      A,(G9K_STATUS)
     426   00:42BE  E6 40             >         AND     A,G9K_STATUS_VR
     426   00:42C0  28 FA             >   JR  Z,$-4
     426   00:42C2                    >         
     427   00:42C2  CD 90 44            			call	VAMOS_A_SABER_QUE_SOY
     428   00:42C5  CD 30 43            			call	A_VER_SI_MUERE
     429   00:42C8                      
     430   00:42C8  3A 25 C0            			ld		a,(CONTADOR_DE_MUERTE)
     431   00:42CB  B7                  			or		a
     432   00:42CC  C2 E3 42            			jp		nz,.bucle_central_1
     433   00:42CF                      			
     434   00:42CF  3A 2E C0            			ld		a,(QUE_SOY)
     435   00:42D2  FE 06               			cp		6
     436   00:42D4  CA EF 42            			jp		z,.bucle_central_2
     437   00:42D7                      
     438   00:42D7  CD DF 83            			call	MIRA_QUE_HAY_ALREDEDOR_DEL_PROTA
     439   00:42DA  CD 04 43            			call	ALGO_ME_MATA
     440   00:42DD  CD C7 49            			call	MIRA_GRAVEDAD
     441   00:42E0  CD F4 4B            			call	STICK
     442   00:42E3                      
     443   00:42E3                      .bucle_central_1:
     444   00:42E3                      
     445   00:42E3  CD E2 43            			call	TECLAS
     446   00:42E6  CD 66 49            			call	COGE_UN_OBJETO_1
     447   00:42E9  CD 77 49            			call	COGE_UN_OBJETO_2
     448   00:42EC  CD BF 4A            			call	CONTROLA_SI_SALE_DE_PANTALLA
     449   00:42EF                      
     450   00:42EF                      .bucle_central_2:
     451   00:42EF                      
     452   00:42EF  CD 78 45            			call	EVENTO_ESPECIAL_SEGUN_PANTALLA
     453   00:42F2                      			G9kWaitVsync
     453   00:42F2                    > 
     453   00:42F2                    > 
     453   00:42F2                    > 
     453   00:42F2  DB 65             >         IN      A,(G9K_STATUS)
     453   00:42F4  E6 40             >         AND     A,G9K_STATUS_VR
     453   00:42F6  20 FA             >   JR  NZ,$-4
     453   00:42F8                    > 
     453   00:42F8  DB 65             >         IN      A,(G9K_STATUS)
     453   00:42FA  E6 40             >         AND     A,G9K_STATUS_VR
     453   00:42FC  28 FA             >   JR  Z,$-4
     453   00:42FE                    >         
     454   00:42FE  CD 34 51            			call	PINTA_SPRITES
     455   00:4301                      
     456   00:4301  C3 B6 42            			jp		BUCLE_CENTRAL
     457   00:4304                      
     458   00:4304                      ALGO_ME_MATA:
     459   00:4304                      
     460   00:4304  06 04               			ld		b,4
     461   00:4306  DD 21 F8 C0         			ld		ix,TYLE_POSIC_3
     462   00:430A                      
     463   00:430A                      .bucle_1:
     464   00:430A                      
     465   00:430A  DD 6E 00            			ld		l,(ix)
     466   00:430D  DD 66 01            			ld		h,(ix+1)
     467   00:4310  11 70 01            			ld		de,368
     468   00:4313  CD 20 00            			call	DCOMPR
     469   00:4316  DA 28 43            			jp		c,.bucle_2
     470   00:4319  11 80 01            			ld		de,384
     471   00:431C  CD 20 00            			call	DCOMPR
     472   00:431F  D2 28 43            			jp		nc,.bucle_2
     473   00:4322                      
     474   00:4322  3E 02               			ld		a,2
     475   00:4324  32 2D C0            			ld		(MUERTE),a
     476   00:4327  C9                  			ret
     477   00:4328                      
     478   00:4328                      .bucle_2:
     479   00:4328                      
     480   00:4328  11 02 00            			ld		de,2
     481   00:432B  DD 19               			add		ix,de
     482   00:432D  10 DB               			djnz	.bucle_1
     483   00:432F                      
     484   00:432F  C9                  			ret
     485   00:4330                      
     486   00:4330                      A_VER_SI_MUERE:
     487   00:4330                      
     488   00:4330  3A 25 C0            			ld		a,(CONTADOR_DE_MUERTE)
     489   00:4333  B7                  			or		a
     490   00:4334  CA 4B 43            			jp		z,.tipo_de_muerte
     491   00:4337                      
     492   00:4337  3C                  			inc		a
     493   00:4338  32 25 C0            			ld		(CONTADOR_DE_MUERTE),a
     494   00:433B                      
     495   00:433B  FE 32               			cp		50
     496   00:433D  C2 4B 43            			jp		nz,.tipo_de_muerte
     497   00:4340  E1                  			pop		hl
     498   00:4341                      
     499   00:4341  3A 26 C0            			ld		a,(VIDAS)
     500   00:4344  3D                  			dec		a
     501   00:4345  32 26 C0            			ld		(VIDAS),a
     502   00:4348                      			
     503   00:4348  C3 AF 41            			jp		PINTA_LA_PANTALLA_DE_INICIO
     504   00:434B                      
     505   00:434B                      .tipo_de_muerte:
     506   00:434B                      
     507   00:434B  3A 2D C0            			ld		a,(MUERTE)
     508   00:434E  B7                  			or		a
     509   00:434F  C8                  			ret		z
     510   00:4350  FE 02               			cp		2
     511   00:4352  CA 7B 43            			jp		z,.explosion
     512   00:4355  FE 03               			cp		3
     513   00:4357  CA C5 43            			jp		z,.radiacion
     514   00:435A  FE 04               			cp		4
     515   00:435C  CA C6 43            			jp		z,.canon_pared
     516   00:435F                      
     517   00:435F                      .caida:			
     518   00:435F                      
     519   00:435F  3A 25 C0            			ld		a,(CONTADOR_DE_MUERTE)
     520   00:4362  B7                  			or		a
     521   00:4363  C0                  			ret		nz
     522   00:4364                      
     523   00:4364  3E 01               			ld		a,1
     524   00:4366  32 25 C0            			ld		(CONTADOR_DE_MUERTE),a
     525   00:4369                      
     526   00:4369  DD 21 33 C0         			ld		ix,ATRIBUTOS_SPRITES
     527   00:436D  3E 74               			ld		a,116
     528   00:436F  CD 16 51            			call	COMUN_PATRON_CUATRO_SPRITES
     529   00:4372  3E 08               			ld      a,0001000b
     530   00:4374  DD 77 03            			ld		(ix+3),a
     531   00:4377  DD 77 07            			ld		(ix+7),a
     532   00:437A  C9                  			ret
     533   00:437B                      
     534   00:437B                      .explosion:
     535   00:437B                      
     536   00:437B  3A 25 C0            			ld		a,(CONTADOR_DE_MUERTE)
     537   00:437E  B7                  			or		a
     538   00:437F  C2 87 43            			jp		nz,.explosion_2
     539   00:4382                      
     540   00:4382  3E 01               			ld		a,1
     541   00:4384  32 25 C0            			ld		(CONTADOR_DE_MUERTE),a
     542   00:4387                      
     543   00:4387                      .explosion_2:
     544   00:4387                      
     545   00:4387  DD 21 33 C0         			ld		ix,ATRIBUTOS_SPRITES
     546   00:438B  3A 25 C0            			ld		a,(CONTADOR_DE_MUERTE)
     547   00:438E  FE 01               			cp		1
     548   00:4390  CA A8 43            			jp		z,.fotograma_1
     549   00:4393  FE 03               			cp		3
     550   00:4395  CA AC 43            			jp		z,.fotograma_2
     551   00:4398  FE 05               			cp		5
     552   00:439A  CA B1 43            			jp		z,.fotograma_3
     553   00:439D  FE 07               			cp		7
     554   00:439F  CA B6 43            			jp		z,.fotograma_4
     555   00:43A2  FE 09               			cp		9
     556   00:43A4  CA BB 43            			jp		z,.fotograma_5
     557   00:43A7  C9                  			ret
     558   00:43A8                      
     559   00:43A8                      .fotograma_1:
     560   00:43A8                      
     561   00:43A8  AF                  			xor		a
     562   00:43A9  C3 16 51            			jp		COMUN_PATRON_CUATRO_SPRITES
     563   00:43AC                      
     564   00:43AC                      .fotograma_2:
     565   00:43AC                      
     566   00:43AC  3E 02               			ld		a,2
     567   00:43AE  C3 16 51            			jp		COMUN_PATRON_CUATRO_SPRITES
     568   00:43B1                      
     569   00:43B1                      .fotograma_3:
     570   00:43B1                      
     571   00:43B1  3E 04               			ld		a,4
     572   00:43B3  C3 16 51            			jp		COMUN_PATRON_CUATRO_SPRITES
     573   00:43B6                      			
     574   00:43B6                      .fotograma_4:
     575   00:43B6                      
     576   00:43B6  3E 06               			ld		a,6
     577   00:43B8  C3 16 51            			jp		COMUN_PATRON_CUATRO_SPRITES
     578   00:43BB                      			
     579   00:43BB                      .fotograma_5:
     580   00:43BB                      
     581   00:43BB  3E EE               			ld		a,238
     582   00:43BD  CD 16 51            			call	COMUN_PATRON_CUATRO_SPRITES
     583   00:43C0  3E 6F               			ld		a,111
     584   00:43C2  C3 06 51            			jp		COMUN_Y_CUATRO_SPRITES
     585   00:43C5                      			
     586   00:43C5                      .radiacion:
     587   00:43C5                      
     588   00:43C5  C9                  			ret
     589   00:43C6                      
     590   00:43C6                      .canon_pared:
     591   00:43C6                      
     592   00:43C6  3A 25 C0            			ld		a,(CONTADOR_DE_MUERTE)
     593   00:43C9  B7                  			or		a
     594   00:43CA  C0                  			ret		nz
     595   00:43CB                      
     596   00:43CB  3E 01               			ld		a,1
     597   00:43CD  32 25 C0            			ld		(CONTADOR_DE_MUERTE),a
     598   00:43D0                      
     599   00:43D0  DD 21 33 C0         			ld		ix,ATRIBUTOS_SPRITES
     600   00:43D4  3E 74               			ld		a,116
     601   00:43D6  CD 16 51            			call	COMUN_PATRON_CUATRO_SPRITES
     602   00:43D9  3E 08               			ld      a,0001000b
     603   00:43DB  DD 77 03            			ld		(ix+3),a
     604   00:43DE  DD 77 07            			ld		(ix+7),a
     605   00:43E1                      
     606   00:43E1  C9                  			ret		
     607   00:43E2                      				
     608   00:43E2                      TECLAS:
     609   00:43E2                      
     610   00:43E2  3A 30 C0            			ld		a,(PAUSA_ENTRE_BOTONES)
     611   00:43E5  B7                  			or		a
     612   00:43E6  CA EE 43            			jp		z,.miramos
     613   00:43E9  3D                  			dec		a
     614   00:43EA  32 30 C0            			ld		(PAUSA_ENTRE_BOTONES),a
     615   00:43ED  C9                  			ret
     616   00:43EE                      
     617   00:43EE                      .miramos:
     618   00:43EE                      
     619   00:43EE  3E 00               			ld		a,0
     620   00:43F0  CD 41 01            			call	SNSMAT
     621   00:43F3  CB 4F               			bit		1,a
     622   00:43F5  CA 0E 44            			jp		z,.rota_a_izquierda_1
     623   00:43F8  CB 57               			bit		2,a
     624   00:43FA  CA 18 44            			jp		z,.rota_a_derecha_2
     625   00:43FD  3E 04               			ld		a,4
     626   00:43FF  CD 41 01            			call	SNSMAT
     627   00:4402  CB 77               			bit		6,a
     628   00:4404  CA 27 44            			jp		z,.intercambia
     629   00:4407  C9                  			ret
     630   00:4408                      
     631   00:4408                      .crea_la_pausa:
     632   00:4408                      
     633   00:4408  3E 05               			ld		a,5
     634   00:440A  32 30 C0            			ld		(PAUSA_ENTRE_BOTONES),a
     635   00:440D  C9                  			ret
     636   00:440E                      
     637   00:440E                      .rota_a_izquierda_1:
     638   00:440E                      
     639   00:440E  CD 08 44            			call	.crea_la_pausa
     640   00:4411  3A 2F C0            			ld		a,(POSICION_BOLSILLO)
     641   00:4414  3D                  			dec		a
     642   00:4415  C3 1F 44            			jp		.comun_rota
     643   00:4418                      
     644   00:4418                      .rota_a_derecha_2:
     645   00:4418                      
     646   00:4418  CD 08 44            			call	.crea_la_pausa
     647   00:441B  3A 2F C0            			ld		a,(POSICION_BOLSILLO)
     648   00:441E  3C                  			inc		a
     649   00:441F                      
     650   00:441F                      .comun_rota:
     651   00:441F                      
     652   00:441F  E6 1F               			and		00011111b
     653   00:4421  32 2F C0            			ld		(POSICION_BOLSILLO),a
     654   00:4424  C3 0E 87            			jp		COLOCA_OBJETOS_BOLSILLO_Y_USANDO
     655   00:4427                      
     656   00:4427                      .intercambia:
     657   00:4427                      
     658   00:4427  DD 21 D4 C0         			ld		ix,MONOCICLO
     659   00:442B  0E 00               			ld		c,0
     660   00:442D  06 1F               			ld		b,31
     661   00:442F                      
     662   00:442F                      .bucle_busca_usando:
     663   00:442F                      
     664   00:442F  DD 7E 00            			ld		a,(ix)
     665   00:4432  FE 02               			cp		2
     666   00:4434  CA 3F 44            			jp		z,.da_atributos_cogiendo
     667   00:4437                      
     668   00:4437  0C                  			inc		c
     669   00:4438  11 01 00            			ld		de,1
     670   00:443B  DD 19               			add		ix,de
     671   00:443D  10 F0               			djnz	.bucle_busca_usando
     672   00:443F                      
     673   00:443F                      .da_atributos_cogiendo:
     674   00:443F                      
     675   00:443F  C5                  			push	bc
     676   00:4440                      
     677   00:4440                      .busca_posicion_cercana_de_bolsillo:
     678   00:4440                      
     679   00:4440  DD 21 D4 C0         			ld		ix,MONOCICLO
     680   00:4444  0E 00               			ld		c,0
     681   00:4446  06 1F               			ld		b,31
     682   00:4448                      
     683   00:4448                      .bucle_busca_bolsillo_cercano:
     684   00:4448                      
     685   00:4448  3A 2F C0            			ld		a,(POSICION_BOLSILLO)
     686   00:444B  C6 03               			add		3
     687   00:444D  57                  			ld		d,a
     688   00:444E  DD 7E 00            			ld		a,(ix)
     689   00:4451  BA                  			cp		d
     690   00:4452  CA 5D 44            			jp		z,.soluciona_el_bolsillo
     691   00:4455                      
     692   00:4455  0C                  			inc		c
     693   00:4456  11 01 00            			ld		de,1
     694   00:4459  DD 19               			add		ix,de
     695   00:445B  10 EB               			djnz	.bucle_busca_bolsillo_cercano
     696   00:445D                      
     697   00:445D                      .soluciona_el_bolsillo:
     698   00:445D                      
     699   00:445D  79                  			ld		a,c
     700   00:445E  C1                  			pop		bc
     701   00:445F  47                  			ld		b,a		; b posicion usando, c posicion bolsillo cercano en posición A
     702   00:4460                      			
     703   00:4460  DD 21 D4 C0         			ld		ix,MONOCICLO ; llevando
     704   00:4464  FD 21 D4 C0         			ld		iy,MONOCICLO ; bolsillo A
     705   00:4468  59                  			ld		e,c
     706   00:4469  16 00               			ld		d,0
     707   00:446B  FD 19               			add		iy,de
     708   00:446D  58                  			ld		e,b
     709   00:446E  DD 19               			add		ix,de
     710   00:4470                      
     711   00:4470                      .guarda_datos_futuro_USANDO:
     712   00:4470                      
     713   00:4470  3E 1F               			ld		a,31
     714   00:4472  B8                  			cp		b
     715   00:4473  CA 7B 44            			jp		z,.guarda_datos_futuro_A
     716   00:4476  3E 02               			ld		a,2
     717   00:4478  DD 77 00            			ld		(ix),a
     718   00:447B                      
     719   00:447B                      .guarda_datos_futuro_A
     720   00:447B                      
     721   00:447B  3E 1F               			ld		a,31
     722   00:447D  B9                  			cp		c
     723   00:447E  CA 89 44            			jp		z,.pintando_las_cosas
     724   00:4481  3A 2F C0            			ld		a,(POSICION_BOLSILLO)
     725   00:4484  C6 03               			add		3
     726   00:4486  FD 77 00            			ld		(iy),a
     727   00:4489                      
     728   00:4489                      .pintando_las_cosas:
     729   00:4489                      
     730   00:4489  CD 0E 87            			call	COLOCA_OBJETOS_BOLSILLO_Y_USANDO
     731   00:448C  CD 08 44            			call	.crea_la_pausa
     732   00:448F  C9                  			ret
     733   00:4490                      
     734   00:4490                      VAMOS_A_SABER_QUE_SOY:
     735   00:4490                      
     736   00:4490  3A 2E C0            			ld		a,(QUE_SOY)
     737   00:4493  FE 06               			cp		6
     738   00:4495  C8                  			ret		z
     739   00:4496                      
     740   00:4496                      .EXPLOTAO:
     741   00:4496                      
     742   00:4496  3A 2D C0            			ld		a,(MUERTE)
     743   00:4499  FE 02               			cp		2
     744   00:449B  C2 B4 44            			jp		nz,.GLOBO
     745   00:449E                      
     746   00:449E  3A 2E C0            			ld		a,(QUE_SOY)
     747   00:44A1  FE 04               			cp		4
     748   00:44A3  C8                  			ret		z
     749   00:44A4                      
     750   00:44A4  3E 04               			ld		a,4
     751   00:44A6  32 2E C0            			ld		(QUE_SOY),a
     752   00:44A9                      
     753   00:44A9  DD 21 4B 52         			ld		ix,TABLA_PEGA_4_POSE_1_DIREC
     754   00:44AD  FD 21 00 8A         			ld		iy,SPR_EXPO_EXP
     755   00:44B1  C3 F6 51            			jp		CARGA_ZONA_SPRITES
     756   00:44B4                      
     757   00:44B4                      .GLOBO:
     758   00:44B4                      
     759   00:44B4  3A 2E C0            			ld		a,(QUE_SOY)
     760   00:44B7  FE 05               			cp		5
     761   00:44B9  C8                  			ret		z
     762   00:44BA                      
     763   00:44BA                      .ASPIRADORA:
     764   00:44BA                      
     765   00:44BA  3A 2E C0            			ld		a,(QUE_SOY)
     766   00:44BD  FE 01               			cp		1
     767   00:44BF  C2 F8 44            			jp		nz,.FLAUTA
     768   00:44C2                      
     769   00:44C2  DD 21 33 C0         			ld		ix,ATRIBUTOS_SPRITES
     770   00:44C6  DD 7E 01            			ld		a,(ix+1)
     771   00:44C9  E6 20               			and		00100000b
     772   00:44CB  DD 77 01            			ld		(ix+1),a
     773   00:44CE  DD 7E 05            			ld		a,(ix+5)
     774   00:44D1  E6 20               			and		00100000b
     775   00:44D3  F6 01               			or		00000001b
     776   00:44D5  DD 77 05            			ld		(ix+5),a
     777   00:44D8  DD 7E 09            			ld		a,(ix+9)
     778   00:44DB  E6 20               			and		00100000b
     779   00:44DD  F6 10               			or		00010000b
     780   00:44DF  DD 77 09            			ld		(ix+9),a
     781   00:44E2  DD 7E 0D            			ld		a,(ix+13)
     782   00:44E5  E6 20               			and		00100000b
     783   00:44E7  F6 11               			or		00010001b
     784   00:44E9  DD 77 0D            			ld		(ix+13),a
     785   00:44EC  AF                  			xor		a
     786   00:44ED  32 1B C0            			ld		(POSE_PROTA),a
     787   00:44F0  CD 34 51            			call	PINTA_SPRITES
     788   00:44F3                      			
     789   00:44F3  AF                  			xor		a
     790   00:44F4  32 18 C0            			ld		(SPACE_PULSADO),a
     791   00:44F7  C9                  			ret
     792   00:44F8                      
     793   00:44F8                      .FLAUTA:
     794   00:44F8  3A DF C0            			ld		a,(FLAUTA)
     795   00:44FB  FE 02               			cp		2
     796   00:44FD  C2 2C 45            			jp		nz,.PARAGUAS
     797   00:4500                      
     798   00:4500                      .SI_FLAUTA:
     799   00:4500                      
     800   00:4500  3A 2E C0            			ld		a,(QUE_SOY)
     801   00:4503  FE 02               			cp		2
     802   00:4505  C8                  			ret		z
     803   00:4506                      
     804   00:4506  DD 21 46 52         			ld		ix,TABLA_PEGA_4_POSE_2_DIREC
     805   00:450A  FD 21 00 92         			ld		iy,SPR_EXPO_FLU
     806   00:450E  CD F6 51            			call	CARGA_ZONA_SPRITES
     807   00:4511                      
     808   00:4511  3E 02               			ld		a,2
     809   00:4513  32 2E C0            			ld		(QUE_SOY),a			
     810   00:4516  C9                  			ret	
     811   00:4517                      
     812   00:4517                      .pintado_general:
     813   00:4517                      
     814   00:4517                      
     815   00:4517  3A 2E C0            			ld		a,(QUE_SOY)
     816   00:451A  B7                  			or		a
     817   00:451B  C8                  			ret		z
     818   00:451C                      
     819   00:451C  DD 21 46 52         			ld		ix,TABLA_PEGA_4_POSE_2_DIREC
     820   00:4520  FD 21 00 A2         			ld		iy,SPR_EXPO_WAC
     821   00:4524  CD F6 51            			call	CARGA_ZONA_SPRITES
     822   00:4527  AF                  			xor		a
     823   00:4528  32 2E C0            			ld		(QUE_SOY),a
     824   00:452B  C9                  			ret
     825   00:452C                      
     826   00:452C                      .PARAGUAS:
     827   00:452C                      
     828   00:452C  3A D9 C0            			ld		a,(PARAGUAS)
     829   00:452F  FE 02               			cp		2
     830   00:4531  C2 17 45            			jp		nz,.pintado_general
     831   00:4534                      
     832   00:4534  3A 1A C0            			ld		a,(ATENCION_AL_SALTO)
     833   00:4537  FE 01               			cp		1
     834   00:4539  C2 17 45            			jp		nz,.pintado_general
     835   00:453C  3A 2E C0            			ld		a,(QUE_SOY)
     836   00:453F  FE 03               			cp		3
     837   00:4541  C8                  			ret		z
     838   00:4542                      
     839   00:4542  3A 0C C0            			ld		a,(PANTALLA_ACTUAL)
     840   00:4545  FE 1C               			cp		28
     841   00:4547  CA 17 45            			jp		z,.pintado_general
     842   00:454A  FE 10               			cp		16
     843   00:454C  CA 17 45            			jp		z,.pintado_general
     844   00:454F                      
     845   00:454F  3A 20 C0            			ld		a,(SUMA_ALTURA_CAIDA)
     846   00:4552  FE 05               			cp		5
     847   00:4554  DA 17 45            			jp		c,.pintado_general
     848   00:4557  3E 03               			ld		a,3
     849   00:4559  32 2E C0            			ld		(QUE_SOY),a
     850   00:455C                      
     851   00:455C  DD 21 3C 52         			ld		ix,TABLA_PEGA_1_POSE_2_DIREC
     852   00:4560  FD 21 00 84         			ld		iy,SPR_EXPO_UMB
     853   00:4564  CD F6 51            			call	CARGA_ZONA_SPRITES
     854   00:4567  DD 21 33 C0         			ld		ix,ATRIBUTOS_SPRITES
     855   00:456B  DD 7E 01            			ld		a,(ix+1)
     856   00:456E  E6 10               			and		00010000b
     857   00:4570  CD 16 51            			call	COMUN_PATRON_CUATRO_SPRITES
     858   00:4573  AF                  			xor		a
     859   00:4574  32 1B C0            			ld		(POSE_PROTA),a			
     860   00:4577  C9                  			RET		
     861   00:4578                      
     862   00:4578                      EVENTO_ESPECIAL_SEGUN_PANTALLA:
     863   00:4578                      
     864   00:4578  DD 21 5B 89         			ld		ix,RELACION_DE_SUCESOS_POR_PANTALLA
     865   00:457C  3A 0C C0            			ld		a,(PANTALLA_ACTUAL)
     866   00:457F  5F                  			ld		e,a
     867   00:4580  16 00               			ld		d,0
     868   00:4582  DD 19 DD 19         [2]			add		ix,de
     869   00:4586  DD 6E 00            			ld		l,(ix)
     870   00:4589  DD 66 01            			ld		h,(ix+1)
     871   00:458C  E9                  			jp		(hl)
     872   00:458D                      
     873   00:458D                      .PANTALLA00:
     874   00:458D                      
     875   00:458D  3E 05               			ld		a,5
     876   00:458F  C3 08 49            			jp		SI_NO_TOCA_OBJETO_1_REGRESA
     877   00:4592                      
     878   00:4592                      .PANTALLA01:
     879   00:4592                      .PANTALLA02:
     880   00:4592                      .PANTALLA03:
     881   00:4592                      
     882   00:4592  C3 23 46            			jp		.PANTALLA15
     883   00:4595                      
     884   00:4595                      .PANTALLA04:
     885   00:4595                      
     886   00:4595  3E 15               			ld		a,21
     887   00:4597  C3 08 49            			jp		SI_NO_TOCA_OBJETO_1_REGRESA
     888   00:459A                      
     889   00:459A                      .PANTALLA05:
     890   00:459A                      .PANTALLA06:
     891   00:459A                      
     892   00:459A  C9                  			ret
     893   00:459B                      .PANTALLA07:
     894   00:459B                      
     895   00:459B  3E 1B               			ld		a,27
     896   00:459D  C3 08 49            			jp		SI_NO_TOCA_OBJETO_1_REGRESA
     897   00:45A0                      
     898   00:45A0                      .PANTALLA08:
     899   00:45A0                      
     900   00:45A0  CD 94 47            			call	.COMUN_8_Y_20
     901   00:45A3                      
     902   00:45A3                      .PANTALLA08_2:
     903   00:45A3                      
     904   00:45A3  3E 0A               			ld		a,10
     905   00:45A5  C3 08 49            			jp		SI_NO_TOCA_OBJETO_1_REGRESA
     906   00:45A8                      
     907   00:45A8                      .PANTALLA09:
     908   00:45A8                      
     909   00:45A8  3E 06               			ld		a,6
     910   00:45AA  C3 08 49            			jp		SI_NO_TOCA_OBJETO_1_REGRESA
     911   00:45AD                      
     912   00:45AD                      .PANTALLA10:
     913   00:45AD                      
     914   00:45AD  3E 0C               			ld		a,12
     915   00:45AF  C3 08 49            			jp		SI_NO_TOCA_OBJETO_1_REGRESA
     916   00:45B2                      
     917   00:45B2                      .PANTALLA11:
     918   00:45B2                      
     919   00:45B2  AF                  			xor		a
     920   00:45B3  C3 08 49            			jp		SI_NO_TOCA_OBJETO_1_REGRESA
     921   00:45B6                      
     922   00:45B6                      .PANTALLA12:
     923   00:45B6                      
     924   00:45B6  3A 1F C0            			ld		a,(DETRAS_DE_POZO)
     925   00:45B9  B7                  			or		a
     926   00:45BA  C2 E7 45            			jp		nz,.PANTALLA12_2
     927   00:45BD                      
     928   00:45BD  DD 21 33 C0         			ld		ix,ATRIBUTOS_SPRITES
     929   00:45C1  DD 7E 02            			ld		a,(ix+2)
     930   00:45C4  FE 3C               			cp		#3c
     931   00:45C6  DA E7 45            			jp		c,.PANTALLA12_2
     932   00:45C9  FE 44               			cp		#44
     933   00:45CB  D2 E7 45            			jp		nc,.PANTALLA12_2
     934   00:45CE  DD 7E 00            			ld		a,(ix)
     935   00:45D1  FE 49               			cp		#49
     936   00:45D3  DA E7 45            			jp		c,.PANTALLA12_2
     937   00:45D6  FE 4B               			cp		#4B
     938   00:45D8  D2 E7 45            			jp		nc,.PANTALLA12_2
     939   00:45DB                      
     940   00:45DB  DD 21 BB 8F         			ld		ix,DATAS_PUENTE
     941   00:45DF  CD A9 83            			call	TILES_DE_B.PINTURA_GLOBAL
     942   00:45E2  3E 01               			ld		a,1
     943   00:45E4  32 1F C0            			ld		(DETRAS_DE_POZO),a
     944   00:45E7                      
     945   00:45E7                      .PANTALLA12_2:
     946   00:45E7                      
     947   00:45E7  DD 21 33 C0         			ld		ix,ATRIBUTOS_SPRITES
     948   00:45EB  DD 7E 02            			ld		a,(ix+2)
     949   00:45EE  FE 3C               			cp		#3c
     950   00:45F0  DA 1E 46            			jp		c,.PANTALLA12_4
     951   00:45F3  FE 44               			cp		#44
     952   00:45F5  D2 1E 46            			jp		nc,.PANTALLA12_4
     953   00:45F8  DD 7E 00            			ld		a,(ix)
     954   00:45FB  FE 57               			cp		#57
     955   00:45FD  DA 1E 46            			jp		c,.PANTALLA12_4
     956   00:4600                      
     957   00:4600  3A 1F C0            			ld		a,(DETRAS_DE_POZO)
     958   00:4603  FE 02               			cp		2
     959   00:4605  C2 0F 46            			jp		nz,.PANTALLA12_3
     960   00:4608                      
     961   00:4608  AF                  			xor		a
     962   00:4609  32 1F C0            			ld		(DETRAS_DE_POZO),a
     963   00:460C  C3 1E 46            			jp		.PANTALLA12_4
     964   00:460F                      
     965   00:460F                      .PANTALLA12_3:
     966   00:460F                      
     967   00:460F  FE 01               			cp		1
     968   00:4611  C2 1E 46            			jp		nz,.PANTALLA12_4
     969   00:4614                      
     970   00:4614  3E 73               			ld		a,115
     971   00:4616  CD 06 51            			call	COMUN_Y_CUATRO_SPRITES
     972   00:4619  3E 02               			ld		a,2
     973   00:461B  32 1F C0            			ld		(DETRAS_DE_POZO),a
     974   00:461E                      
     975   00:461E                      .PANTALLA12_4:
     976   00:461E                      
     977   00:461E  3E 02               			ld		a,2
     978   00:4620  C3 08 49            			jp		SI_NO_TOCA_OBJETO_1_REGRESA
     979   00:4623                      
     980   00:4623                      .PANTALLA13:
     981   00:4623                      .PANTALLA14:
     982   00:4623                      .PANTALLA15:
     983   00:4623                      
     984   00:4623  3A DB C0            			ld		a,(SOPLADOR)
     985   00:4626  FE 02               			cp		2
     986   00:4628  CA 5A 46            			jp		z,.PANTALLA15_0
     987   00:462B  3A DA C0            			ld		a,(MANIFIESTO)
     988   00:462E  FE 02               			cp		2
     989   00:4630  CA 5A 46            			jp		z,.PANTALLA15_0
     990   00:4633                      
     991   00:4633  DD 21 73 C0         			ld		ix,ATRIBUTOS_SPRITES+64
     992   00:4637  DD 7E 00            			ld		a,(ix)
     993   00:463A  FE 48               			cp		#48
     994   00:463C  D2 5A 46            			jp		nc,.PANTALLA15_0
     995   00:463F                      
     996   00:463F  3C                  			inc		a
     997   00:4640  CD 06 51            			call	COMUN_Y_CUATRO_SPRITES
     998   00:4643  11 10 00            			ld		de,16
     999   00:4646  DD 19               			add		ix,de
    1000   00:4648  DD 7E 00            			ld		a,(ix)
    1001   00:464B  3C                  			inc		a
    1002   00:464C  CD 06 51            			call	COMUN_Y_CUATRO_SPRITES
    1003   00:464F  DD 21 33 C0         			ld		ix,ATRIBUTOS_SPRITES
    1004   00:4653  DD 7E 00            			ld		a,(ix)
    1005   00:4656  3C                  			inc		a
    1006   00:4657  CD 06 51            			call	COMUN_Y_CUATRO_SPRITES
    1007   00:465A                      
    1008   00:465A                      .PANTALLA15_0:
    1009   00:465A                      
    1010   00:465A  3A 1D C0            			ld		a,(OBJETO_TOCANDO_2)
    1011   00:465D  B7                  			or		a
    1012   00:465E  CA AA 46            			jp		z,.PANTALLA15_4
    1013   00:4661                      
    1014   00:4661  3A 2E C0            			ld		a,(QUE_SOY)
    1015   00:4664  FE 05               			cp		5
    1016   00:4666  CA 79 46            			jp		z,.PANTALLA15_2
    1017   00:4669                      
    1018   00:4669  DD 21 41 52         			ld		ix,TABLA_PEGA_1_POSE_1_DIREC
    1019   00:466D  FD 21 00 88         			ld		iy,SPR_EXPO_BAL
    1020   00:4671  CD F6 51            			call	CARGA_ZONA_SPRITES
    1021   00:4674                      
    1022   00:4674  3E 05               			ld		a,5
    1023   00:4676  32 2E C0            			ld		(QUE_SOY),a	
    1024   00:4679                      
    1025   00:4679                      .PANTALLA15_2:
    1026   00:4679                      
    1027   00:4679  3A DB C0            			ld		a,(SOPLADOR)
    1028   00:467C  FE 02               			cp		2
    1029   00:467E  CA 87 46            			jp		z,.PANTALLA15_3
    1030   00:4681  3A DA C0            			ld		a,(MANIFIESTO)
    1031   00:4684  FE 02               			cp		2
    1032   00:4686  C0                  			ret		nz
    1033   00:4687                      
    1034   00:4687                      .PANTALLA15_3:
    1035   00:4687                      
    1036   00:4687  DD 21 33 C0         			ld		ix,ATRIBUTOS_SPRITES
    1037   00:468B  DD 7E 00            			ld		a,(ix)
    1038   00:468E  3D                  			dec		a
    1039   00:468F  CD 06 51            			call	COMUN_Y_CUATRO_SPRITES
    1040   00:4692  11 40 00            			ld		de,4*4*4
    1041   00:4695  DD 19               			add		ix,de
    1042   00:4697  DD 7E 00            			ld		a,(ix)
    1043   00:469A  3D                  			dec		a
    1044   00:469B  CD 06 51            			call	COMUN_Y_CUATRO_SPRITES
    1045   00:469E  11 10 00            			ld		de,4*4
    1046   00:46A1  DD 19               			add		ix,de
    1047   00:46A3  DD 7E 00            			ld		a,(ix)
    1048   00:46A6  3D                  			dec		a
    1049   00:46A7  C3 06 51            			jp		COMUN_Y_CUATRO_SPRITES			
    1050   00:46AA                      
    1051   00:46AA                      .PANTALLA15_4:
    1052   00:46AA                      
    1053   00:46AA  3A 2E C0            			ld		a,(QUE_SOY)
    1054   00:46AD  FE 05               			cp		5
    1055   00:46AF  C0                  			ret		nz
    1056   00:46B0                      
    1057   00:46B0  DD 21 46 52         			ld		ix,TABLA_PEGA_4_POSE_2_DIREC
    1058   00:46B4  FD 21 00 A2         			ld		iy,SPR_EXPO_WAC
    1059   00:46B8  CD F6 51            			call	CARGA_ZONA_SPRITES
    1060   00:46BB                      
    1061   00:46BB  AF                  			xor		a
    1062   00:46BC  32 2E C0            			ld		(QUE_SOY),a
    1063   00:46BF  C9                  			ret
    1064   00:46C0                      
    1065   00:46C0                      .PANTALLA16:
    1066   00:46C0                      
    1067   00:46C0  3A 1C C0            			ld		a,(OBJETO_TOCANDO_1)
    1068   00:46C3  B7                  			or		a
    1069   00:46C4  CA DA 46            			jp		z,.PANTALLA16_2
    1070   00:46C7                      
    1071   00:46C7  3E 07               			ld		a,7
    1072   00:46C9  CD 33 49            			call	ENTREGA_UN_OBJETO
    1073   00:46CC  CD 4C 49            			call	BORRA_OBJETO_1_DE_PANTALLA
    1074   00:46CF  CD 23 49            			call	PUNTOS
    1075   00:46D2  3E 07               			ld		a,7
    1076   00:46D4  CD 24 49            			call	COLOCA_OBJETO_EN_MARCADOR
    1077   00:46D7  C3 F1 46            			jp		.PANTALLA16_3
    1078   00:46DA                      
    1079   00:46DA                      .PANTALLA16_2:
    1080   00:46DA                      
    1081   00:46DA  3A 1D C0            			ld		a,(OBJETO_TOCANDO_2)
    1082   00:46DD  B7                  			or		a
    1083   00:46DE  CA F1 46            			jp		z,.PANTALLA16_3
    1084   00:46E1                      
    1085   00:46E1  3E 03               			ld		a,3
    1086   00:46E3  CD 33 49            			call	ENTREGA_UN_OBJETO
    1087   00:46E6  CD 53 49            			call	BORRA_OBJETO_2_DE_PANTALLA
    1088   00:46E9  CD 23 49            			call	PUNTOS
    1089   00:46EC  3E 03               			ld		a,3
    1090   00:46EE  CD 24 49            			call	COLOCA_OBJETO_EN_MARCADOR
    1091   00:46F1                      
    1092   00:46F1                      .PANTALLA16_3:
    1093   00:46F1                      
    1094   00:46F1  3A 27 C0            			ld		a,(SALTO_COLCHONETA)
    1095   00:46F4  B7                  			or		a
    1096   00:46F5  CA 20 47            			JP		z,.PANTALLA16_5
    1097   00:46F8                      
    1098   00:46F8  DD 21 33 C0         			ld		ix,ATRIBUTOS_SPRITES
    1099   00:46FC  DD 7E 00            			ld		a,(ix)
    1100   00:46FF  FE 2D               			cp		45
    1101   00:4701  DA 16 47            			jp		c,.PANTALLA16_4
    1102   00:4704                      		
    1103   00:4704  D6 02               			sub		2
    1104   00:4706  CD 06 51            			call	COMUN_Y_CUATRO_SPRITES
    1105   00:4709  DD 7E 01            			ld		a,(ix+1)
    1106   00:470C  E6 20               			and		00100000b
    1107   00:470E  F6 0E               			or		00001110b
    1108   00:4710  CD 16 51            			call	COMUN_PATRON_CUATRO_SPRITES
    1109   00:4713  C3 20 47            			jp		.PANTALLA16_5
    1110   00:4716                      
    1111   00:4716                      .PANTALLA16_4:
    1112   00:4716                      
    1113   00:4716  AF                  			xor		a
    1114   00:4717  32 27 C0            			ld		(SALTO_COLCHONETA),a
    1115   00:471A  32 1B C0            			ld		(POSE_PROTA),a
    1116   00:471D  CD 16 51            			call	COMUN_PATRON_CUATRO_SPRITES
    1117   00:4720                      
    1118   00:4720                      .PANTALLA16_5:
    1119   00:4720                      
    1120   00:4720  DD 21 33 C0         			ld		ix,ATRIBUTOS_SPRITES
    1121   00:4724  DD 7E 02            			ld		a,(ix+2)
    1122   00:4727  FE 2B               			cp		#2b
    1123   00:4729  D2 46 47            			jp		nc,.PANTALLA16_6
    1124   00:472C                      
    1125   00:472C  3A 28 C0            			ld		a,(QUIERE_CUERDA)
    1126   00:472F  FE 02               			cp		2
    1127   00:4731  CA 46 47            			jp		z,.PANTALLA16_6
    1128   00:4734                      
    1129   00:4734  3E 01               			ld		a,1
    1130   00:4736  32 28 C0            			ld		(QUIERE_CUERDA),a
    1131   00:4739                      
    1132   00:4739  DD 7E 01            			ld		a,(ix+1)
    1133   00:473C  E6 3F               			and		00111111b
    1134   00:473E  CD 16 51            			call	COMUN_PATRON_CUATRO_SPRITES
    1135   00:4741  3E 2A               			ld		a,#2a
    1136   00:4743  CD F6 50            			call	COMUN_X_CUATRO_SPRITES
    1137   00:4746                      
    1138   00:4746                      .PANTALLA16_6:
    1139   00:4746                      
    1140   00:4746  3A 28 C0            			ld		a,(QUIERE_CUERDA)
    1141   00:4749  B7                  			or		a
    1142   00:474A  C8                  			ret		z
    1143   00:474B                      
    1144   00:474B  3A DF C0            			ld		a,(FLAUTA)
    1145   00:474E  FE 02               			cp		2
    1146   00:4750  C0                  			ret		nz
    1147   00:4751                      
    1148   00:4751  2A 29 C0            			ld		hl,(CUERDA_PINTANDO)
    1149   00:4754  11 10 C5            			ld 		de,#c510
    1150   00:4757  CD 20 00            			call	DCOMPR
    1151   00:475A  C2 63 47            			jp		nz,.PANTALLA16_7
    1152   00:475D                      
    1153   00:475D  3E 02               			ld		a,2
    1154   00:475F  32 28 C0            			ld		(QUIERE_CUERDA),a
    1155   00:4762  C9                  			ret
    1156   00:4763                      
    1157   00:4763                      .PANTALLA16_7:			
    1158   00:4763                      
    1159   00:4763  ED 5B 14 C0         			ld		de,(BYTE_VRAM_EMPIEZA_HL)
    1160   00:4767  B7                  			or		a
    1161   00:4768  ED 5A               			adc		hl,de
    1162   00:476A  11 FF BF            			ld		de,#bfff
    1163   00:476D  ED 52               			sbc		hl,de
    1164   00:476F  1E 07               			ld		e,7
    1165   00:4771  CD F8 53            			call	G9kSetVramWrite	
    1166   00:4774                      
    1167   00:4774  21 3E 02            			ld		hl,574
    1168   00:4777  CD B9 55            			call	OUT_ESCRIBE_UN_BYTE
    1169   00:477A  21 3F 02            			ld		hl,575
    1170   00:477D  CD B9 55            			call	OUT_ESCRIBE_UN_BYTE
    1171   00:4780                      
    1172   00:4780                      
    1173   00:4780  2A 29 C0            			ld		hl,(CUERDA_PINTANDO)
    1174   00:4783  11 40 00            			ld		de,#40
    1175   00:4786  B7                  			or		a
    1176   00:4787  ED 52               			sbc		hl,de
    1177   00:4789  22 29 C0            			ld		(CUERDA_PINTANDO),hl
    1178   00:478C                      
    1179   00:478C  C9                  			ret
    1180   00:478D                      
    1181   00:478D                      .PANTALLA17:
    1182   00:478D                      .PANTALLA18:
    1183   00:478D                      .PANTALLA19:
    1184   00:478D                      
    1185   00:478D  C9                  			ret
    1186   00:478E                      .PANTALLA20:
    1187   00:478E                      
    1188   00:478E  CD 94 47            			call	.COMUN_8_Y_20
    1189   00:4791  C3 CB 47            			jp		.PANTALLA20_2
    1190   00:4794                      
    1191   00:4794                      .COMUN_8_Y_20:
    1192   00:4794                      
    1193   00:4794  3A DD C0            			ld		a,(ASPIRADORA)
    1194   00:4797  FE 02               			cp		2
    1195   00:4799  C2 B3 47            			jp		nz,.NO_VUELA
    1196   00:479C                      
    1197   00:479C                      .SI_VUELA:
    1198   00:479C                      
    1199   00:479C  3A 2E C0            			ld		a,(QUE_SOY)
    1200   00:479F  FE 01               			cp		1
    1201   00:47A1  C8                  			ret		z
    1202   00:47A2                      
    1203   00:47A2  DD 21 3C 52         			ld		ix,TABLA_PEGA_1_POSE_2_DIREC
    1204   00:47A6  FD 21 00 80         			ld		iy,SPR_EXPO_ASP
    1205   00:47AA  CD F6 51            			call	CARGA_ZONA_SPRITES
    1206   00:47AD                      
    1207   00:47AD  3E 01               			ld		a,1
    1208   00:47AF  32 2E C0            			ld		(QUE_SOY),a			
    1209   00:47B2  C9                  			ret	
    1210   00:47B3                      
    1211   00:47B3                      .NO_VUELA:
    1212   00:47B3                      
    1213   00:47B3                      
    1214   00:47B3  3A 2E C0            			ld		a,(QUE_SOY)
    1215   00:47B6  B7                  			or		a
    1216   00:47B7  C8                  			ret		z
    1217   00:47B8  FE 02               			cp		2
    1218   00:47BA  C8                  			ret		z
    1219   00:47BB                      
    1220   00:47BB  DD 21 46 52         			ld		ix,TABLA_PEGA_4_POSE_2_DIREC
    1221   00:47BF  FD 21 00 A2         			ld		iy,SPR_EXPO_WAC
    1222   00:47C3  CD F6 51            			call	CARGA_ZONA_SPRITES
    1223   00:47C6  AF                  			xor		a
    1224   00:47C7  32 2E C0            			ld		(QUE_SOY),a
    1225   00:47CA  C9                  			ret
    1226   00:47CB                      
    1227   00:47CB                      .PANTALLA20_2:
    1228   00:47CB                      
    1229   00:47CB  3E 09               			ld		a,9
    1230   00:47CD  C3 08 49            			jp		SI_NO_TOCA_OBJETO_1_REGRESA
    1231   00:47D0                      
    1232   00:47D0                      .PANTALLA21:
    1233   00:47D0                      
    1234   00:47D0  C9                  			ret
    1235   00:47D1                      .PANTALLA22:
    1236   00:47D1                      
    1237   00:47D1  3E 0B               			ld		a,11
    1238   00:47D3  C3 08 49            			jp		SI_NO_TOCA_OBJETO_1_REGRESA
    1239   00:47D6                      
    1240   00:47D6                      .PANTALLA23:
    1241   00:47D6                      .PANTALLA24:
    1242   00:47D6                      
    1243   00:47D6  C9                  			ret
    1244   00:47D7                      .PANTALLA25:
    1245   00:47D7                      
    1246   00:47D7  3A DE C0            			ld		a,(PUENTE_EXP)
    1247   00:47DA  FE 02               			cp		2
    1248   00:47DC  C0                  			ret		nz
    1249   00:47DD                      
    1250   00:47DD  DD 21 33 C0         			ld 		ix,ATRIBUTOS_SPRITES
    1251   00:47E1  DD 7E 02            			ld		a,(ix+2)
    1252   00:47E4  FE 38               			cp		56
    1253   00:47E6  D8                  			ret		c
    1254   00:47E7  FE B4               			cp		180
    1255   00:47E9  D0                  			ret		nc
    1256   00:47EA                      
    1257   00:47EA  DD 7E 00            			ld		a,(ix)
    1258   00:47ED  FE 3A               			cp		#3a
    1259   00:47EF  D0                  			ret		nc
    1260   00:47F0                      
    1261   00:47F0  21 00 E0            			ld		hl,#e000
    1262   00:47F3                      			
    1263   00:47F3  DD 7E 02            			ld  	a,(ix+2)
    1264   00:47F6  CB 3F CB 3F CB 3F   [3]			srl		a
    1265   00:47FC  CB 27               			sla		a
    1266   00:47FE  C6 02               			add		2
    1267   00:4800  5F                  			ld		e,a
    1268   00:4801  16 00               			ld		d,0
    1269   00:4803  B7                  			or		a
    1270   00:4804  ED 5A               			adc		hl,de
    1271   00:4806  11 80 05            			ld		de,32*2*2*11
    1272   00:4809  ED 5A               			adc		hl,de
    1273   00:480B  1E 07               			ld		e,7
    1274   00:480D  CD F8 53            			call	G9kSetVramWrite
    1275   00:4810                      			
    1276   00:4810  21 D2 03            			ld		hl,978
    1277   00:4813  CD B9 55            			call	OUT_ESCRIBE_UN_BYTE
    1278   00:4816                      
    1279   00:4816  C9                  			ret
    1280   00:4817                      
    1281   00:4817                      .PANTALLA26:
    1282   00:4817                      .PANTALLA27:
    1283   00:4817                      
    1284   00:4817  C9                  			ret
    1285   00:4818                      
    1286   00:4818                      .PANTALLA28:
    1287   00:4818                      
    1288   00:4818  3A 27 C0            			ld		a,(SALTO_COLCHONETA)
    1289   00:481B  B7                  			or		a
    1290   00:481C  CA 35 48            			jp		z,.PANTALLA28_1
    1291   00:481F                      
    1292   00:481F  DD 21 33 C0         			ld		ix,ATRIBUTOS_SPRITES
    1293   00:4823  DD 7E 00            			ld		a,(ix)
    1294   00:4826  D6 02               			sub		2
    1295   00:4828  CD 06 51            			call	COMUN_Y_CUATRO_SPRITES
    1296   00:482B  DD 7E 01            			ld		a,(ix+1)
    1297   00:482E  E6 20               			and		00100000b
    1298   00:4830  F6 0E               			or		00001110b
    1299   00:4832  C3 16 51            			jp		COMUN_PATRON_CUATRO_SPRITES
    1300   00:4835                      
    1301   00:4835                      
    1302   00:4835                      .PANTALLA28_1:
    1303   00:4835                      
    1304   00:4835  DD 21 33 C0         			ld		ix,ATRIBUTOS_SPRITES
    1305   00:4839  DD 7E 02            			ld		a,(ix+2)
    1306   00:483C  FE 4D               			cp		#4D
    1307   00:483E  D8                  			ret		c
    1308   00:483F  FE 52               			cp		#52
    1309   00:4841  D0                  			ret		nc
    1310   00:4842  DD 7E 00            			ld		a,(ix)
    1311   00:4845  FE 33               			cp		#33
    1312   00:4847  D8                  			ret		c
    1313   00:4848  FE 36               			cp		#36
    1314   00:484A  D0                  			ret		nc
    1315   00:484B                      
    1316   00:484B                      
    1317   00:484B  3E 01               			ld		a,1
    1318   00:484D  32 27 C0            			ld		(SALTO_COLCHONETA),a
    1319   00:4850  C9                  			ret
    1320   00:4851                      
    1321   00:4851                      .PANTALLA29:
    1322   00:4851                      
    1323   00:4851  3A 2B C0            			ld		a,(ANIM_CAN)
    1324   00:4854  B7                  			or		a
    1325   00:4855  C2 8C 48            			jp		nz,.preparamos_animacion_canyon
    1326   00:4858                      			
    1327   00:4858  3A 1C C0            			ld		a,(OBJETO_TOCANDO_1)
    1328   00:485B  B7                  			or		a
    1329   00:485C  CA B2 48            			jp		z,.PANTALLA29_2
    1330   00:485F                      
    1331   00:485F  3A F0 C0            			ld		a,(POLVORA_GRAND)
    1332   00:4862  FE 02               			cp		2
    1333   00:4864  CA 77 48            			jp		z,.PANTALLA29_1
    1334   00:4867                      
    1335   00:4867  3A EE C0            			ld		a,(POLVORA_PEQUE)
    1336   00:486A  FE 02               			cp		2
    1337   00:486C  CA 77 48            			jp		z,.PANTALLA29_1
    1338   00:486F                      
    1339   00:486F  3A EF C0            			ld		a,(POLVORA_MEDIA)
    1340   00:4872  FE 02               			cp		2
    1341   00:4874  C2 B2 48            			jp		nz,.PANTALLA29_2
    1342   00:4877                      
    1343   00:4877                      .PANTALLA29_1:
    1344   00:4877                      
    1345   00:4877  DD 21 4B 52         			ld		ix,TABLA_PEGA_4_POSE_1_DIREC
    1346   00:487B  FD 21 00 B2         			ld		iy,SPR_EXPO_CAN
    1347   00:487F  CD F6 51            			call	CARGA_ZONA_SPRITES
    1348   00:4882                      
    1349   00:4882  3E 01               			ld		a,1
    1350   00:4884  32 2B C0            			ld		(ANIM_CAN),a
    1351   00:4887  3E 06               			ld		a,6
    1352   00:4889  32 2E C0            			ld		(QUE_SOY),a
    1353   00:488C                      
    1354   00:488C                      .preparamos_animacion_canyon:
    1355   00:488C                      
    1356   00:488C  3E 15               			ld		a,21
    1357   00:488E  32 00 70            			ld		[#7000],a
    1358   00:4891  CD 00 80            			call	ANIMACION_CANYON
    1359   00:4894  3E 03               			ld		a,3
    1360   00:4896  32 00 70            			ld		[#7000],a
    1361   00:4899                      
    1362   00:4899  3A 2E C0            			ld		a,(QUE_SOY)
    1363   00:489C  B7                  			or		a
    1364   00:489D  C0                  			ret		nz
    1365   00:489E                      			
    1366   00:489E  DD 21 46 52         			ld		ix,TABLA_PEGA_4_POSE_2_DIREC
    1367   00:48A2  FD 21 00 A2         			ld		iy,SPR_EXPO_WAC
    1368   00:48A6  CD F6 51            			call	CARGA_ZONA_SPRITES
    1369   00:48A9  DD 21 33 C0         			ld		ix,ATRIBUTOS_SPRITES
    1370   00:48AD  3E 20               			ld		a,32
    1371   00:48AF  CD 16 51            			call	COMUN_PATRON_CUATRO_SPRITES
    1372   00:48B2                      
    1373   00:48B2                      .PANTALLA29_2:
    1374   00:48B2                      
    1375   00:48B2  3A 1D C0            			ld		a,(OBJETO_TOCANDO_2)
    1376   00:48B5  B7                  			or		a
    1377   00:48B6  C8                  			ret		z
    1378   00:48B7                      
    1379   00:48B7  3E 1C               			ld		a,28
    1380   00:48B9  CD 33 49            			call	ENTREGA_UN_OBJETO
    1381   00:48BC  CD 53 49            			call	BORRA_OBJETO_2_DE_PANTALLA
    1382   00:48BF  CD 23 49            			call	PUNTOS
    1383   00:48C2  3E 1C               			ld		a,28
    1384   00:48C4  CD 24 49            			call	COLOCA_OBJETO_EN_MARCADOR
    1385   00:48C7  C9                  			ret
    1386   00:48C8                      
    1387   00:48C8                      .PANTALLA30:
    1388   00:48C8                      .PANTALLA31:
    1389   00:48C8                      .PANTALLA32:
    1390   00:48C8  C9                  			ret
    1391   00:48C9                      .PANTALLA33:
    1392   00:48C9                      
    1393   00:48C9  3E 1A               			ld		a,26
    1394   00:48CB  C3 08 49            			jp		SI_NO_TOCA_OBJETO_1_REGRESA
    1395   00:48CE                      
    1396   00:48CE                      .PANTALLA34:
    1397   00:48CE                      
    1398   00:48CE  3E 01               			ld		a,1
    1399   00:48D0  C3 08 49            			jp		SI_NO_TOCA_OBJETO_1_REGRESA
    1400   00:48D3                      
    1401   00:48D3                      .PANTALLA35:
    1402   00:48D3                      .PANTALLA36:
    1403   00:48D3                      .PANTALLA37:
    1404   00:48D3                      .PANTALLA38:
    1405   00:48D3  C9                  			ret
    1406   00:48D4                      .PANTALLA39:
    1407   00:48D4                      
    1408   00:48D4  3E 0F               			ld		a,15
    1409   00:48D6  C3 08 49            			jp		SI_NO_TOCA_OBJETO_1_REGRESA
    1410   00:48D9                      
    1411   00:48D9                      .PANTALLA40:
    1412   00:48D9                      
    1413   00:48D9  3E 0E               			ld		a,14
    1414   00:48DB  C3 08 49            			jp		SI_NO_TOCA_OBJETO_1_REGRESA
    1415   00:48DE                      
    1416   00:48DE                      .PANTALLA41:
    1417   00:48DE  C9                  			ret
    1418   00:48DF                      .PANTALLA42:
    1419   00:48DF                      
    1420   00:48DF  3E 04               			ld		a,4
    1421   00:48E1  C3 08 49            			jp		SI_NO_TOCA_OBJETO_1_REGRESA
    1422   00:48E4                      
    1423   00:48E4                      .PANTALLA43:
    1424   00:48E4  C9                  			ret
    1425   00:48E5                      .PANTALLA44:
    1426   00:48E5                      
    1427   00:48E5  3E 17               			ld		a,23
    1428   00:48E7  C3 08 49            			jp		SI_NO_TOCA_OBJETO_1_REGRESA
    1429   00:48EA                      
    1430   00:48EA                      .PANTALLA45:
    1431   00:48EA                      .PANTALLA46:
    1432   00:48EA                      .PANTALLA47:
    1433   00:48EA                      .PANTALLA48:
    1434   00:48EA  C9                  			ret
    1435   00:48EB                      .PANTALLA49:
    1436   00:48EB                      
    1437   00:48EB  3E 12               			ld		a,18
    1438   00:48ED  C3 08 49            			jp		SI_NO_TOCA_OBJETO_1_REGRESA
    1439   00:48F0                      
    1440   00:48F0                      .PANTALLA50:
    1441   00:48F0                      .PANTALLA51:
    1442   00:48F0  C9                  			ret
    1443   00:48F1                      .PANTALLA52:
    1444   00:48F1                      
    1445   00:48F1  3E 11               			ld		a,17
    1446   00:48F3  C3 08 49            			jp		SI_NO_TOCA_OBJETO_1_REGRESA
    1447   00:48F6                      
    1448   00:48F6                      .PANTALLA53:
    1449   00:48F6                      .PANTALLA54:
    1450   00:48F6                      .PANTALLA55:
    1451   00:48F6                      .PANTALLA56:
    1452   00:48F6                      .PANTALLA57:
    1453   00:48F6                      .PANTALLA58:
    1454   00:48F6                      .PANTALLA59:
    1455   00:48F6  C9                  			ret
    1456   00:48F7                      .PANTALLA60:
    1457   00:48F7                      
    1458   00:48F7  3E 14               			ld		a,20
    1459   00:48F9  C3 08 49            			jp		SI_NO_TOCA_OBJETO_1_REGRESA
    1460   00:48FC                      
    1461   00:48FC                      .PANTALLA61:
    1462   00:48FC                      .PANTALLA62:
    1463   00:48FC                      .PANTALLA63:
    1464   00:48FC                      .PANTALLA64:
    1465   00:48FC                      .PANTALLA65:
    1466   00:48FC  C9                  			ret
    1467   00:48FD                      .PANTALLA66:
    1468   00:48FD                      
    1469   00:48FD  3E 10               			ld		a,16
    1470   00:48FF  C3 08 49            			jp		SI_NO_TOCA_OBJETO_1_REGRESA
    1471   00:4902                      
    1472   00:4902                      .PANTALLA67:
    1473   00:4902                      .PANTALLA68:
    1474   00:4902  C9                  			ret
    1475   00:4903                      .PANTALLA69:
    1476   00:4903                      
    1477   00:4903  3E 16               			ld		a,22
    1478   00:4905  C3 08 49            			jp		SI_NO_TOCA_OBJETO_1_REGRESA
    1479   00:4908                      
    1480   00:4908                      SI_NO_TOCA_OBJETO_1_REGRESA:
    1481   00:4908                      
    1482   00:4908  32 1A C1            			ld		(var_cir_1),a
    1483   00:490B  3A 1C C0            			ld		a,(OBJETO_TOCANDO_1)
    1484   00:490E  B7                  			or		a
    1485   00:490F  C8                  			ret		z
    1486   00:4910  3A 1A C1            			ld		a,(var_cir_1)
    1487   00:4913  CD 33 49            			call	ENTREGA_UN_OBJETO
    1488   00:4916  CD 4C 49            			call	BORRA_OBJETO_1_DE_PANTALLA
    1489   00:4919  CD 23 49            			call	PUNTOS
    1490   00:491C  3A 1A C1            			ld		a,(var_cir_1)
    1491   00:491F  CD 24 49            			call	COLOCA_OBJETO_EN_MARCADOR
    1492   00:4922  C9                  			ret			
    1493   00:4923                      
    1494   00:4923                      PUNTOS:
    1495   00:4923                      
    1496   00:4923  C9                  			ret
    1497   00:4924                      
    1498   00:4924                      COLOCA_OBJETO_EN_MARCADOR:
    1499   00:4924                      
    1500   00:4924  DD 21 D4 C0         			ld		ix,MONOCICLO
    1501   00:4928  5F                  			ld		e,a
    1502   00:4929  16 00               			ld		d,0
    1503   00:492B  DD 19               			add		ix,de
    1504   00:492D  DD 7E 00            			ld		a,(ix)
    1505   00:4930  FE 01               			cp		1
    1506   00:4932  C0                  			ret		nz
    1507   00:4933                      
    1508   00:4933                      
    1509   00:4933                      ENTREGA_UN_OBJETO:
    1510   00:4933                      
    1511   00:4933  DD 21 D4 C0         			ld		ix,MONOCICLO
    1512   00:4937  5F                  			ld		e,a
    1513   00:4938  16 00               			ld		d,0
    1514   00:493A  DD 19               			add		ix,de
    1515   00:493C  DD 7E 00            			ld		a,(ix)
    1516   00:493F                      
    1517   00:493F  B7                  			or		a
    1518   00:4940  C0                  			ret		nz
    1519   00:4941  3C                  			inc		a
    1520   00:4942  DD 77 00            			ld		(ix),a
    1521   00:4945                      
    1522   00:4945  CD 8D 86            			call	ORGANIZA_OBJETOS
    1523   00:4948  CD 0E 87            			call	COLOCA_OBJETOS_BOLSILLO_Y_USANDO
    1524   00:494B                      			;puntos
    1525   00:494B  C9                  			ret			
    1526   00:494C                      BORRA_OBJETO_1_DE_PANTALLA:
    1527   00:494C                      
    1528   00:494C  DD 21 76 C0         		ld		ix,ATRIBUTOS_SPRITES+67
    1529   00:4950  C3 57 49            		jp		COMUN_BORRA_OBJETO
    1530   00:4953                      
    1531   00:4953                      BORRA_OBJETO_2_DE_PANTALLA:
    1532   00:4953                      
    1533   00:4953  DD 21 86 C0         		ld		ix,ATRIBUTOS_SPRITES+83
    1534   00:4957                      
    1535   00:4957                      COMUN_BORRA_OBJETO:
    1536   00:4957                      
    1537   00:4957  3E DC               		ld		a,220
    1538   00:4959  DD 77 00            		ld		(ix),a
    1539   00:495C  DD 77 04            		ld		(ix+4),a
    1540   00:495F  DD 77 08            		ld		(ix+8),a
    1541   00:4962  DD 77 0C            		ld		(ix+12),a
    1542   00:4965  C9                  		ret
    1543   00:4966                      			
    1544   00:4966                      COGE_UN_OBJETO_1:
    1545   00:4966                      
    1546   00:4966  AF                  			xor		a
    1547   00:4967  32 1C C0            			ld		(OBJETO_TOCANDO_1),a
    1548   00:496A  FD 21 73 C0         			ld		iy,ATRIBUTOS_SPRITES+64
    1549   00:496E  CD 88 49            			call	COMUN_COGE_UN_OBJETO
    1550   00:4971                      
    1551   00:4971  3E 01               			ld		a,1
    1552   00:4973  32 1C C0            			ld		(OBJETO_TOCANDO_1),a
    1553   00:4976  C9                  			ret
    1554   00:4977                      
    1555   00:4977                      COGE_UN_OBJETO_2:
    1556   00:4977                      
    1557   00:4977  AF                  			xor		a
    1558   00:4978  32 1D C0            			ld		(OBJETO_TOCANDO_2),a
    1559   00:497B  FD 21 83 C0         			ld		iy,ATRIBUTOS_SPRITES+80
    1560   00:497F  CD 88 49            			call	COMUN_COGE_UN_OBJETO
    1561   00:4982                      
    1562   00:4982  3E 01               			ld		a,1
    1563   00:4984  32 1D C0            			ld		(OBJETO_TOCANDO_2),a
    1564   00:4987  C9                  			ret
    1565   00:4988                      
    1566   00:4988                      COMUN_COGE_UN_OBJETO:
    1567   00:4988                      
    1568   00:4988  DD 21 33 C0         			ld		ix,ATRIBUTOS_SPRITES
    1569   00:498C  FD 7E 00            			ld		a,(iy)
    1570   00:498F  C6 0A               			add		10
    1571   00:4991  47                  			ld		b,a
    1572   00:4992  DD 7E 00            			ld		a,(ix)
    1573   00:4995  C6 16               			add		22
    1574   00:4997  B8                  			cp		b
    1575   00:4998  DA C5 49            			jp		c,REGRESA_SIN_EFECTO
    1576   00:499B                      
    1577   00:499B  78                  			ld		a,b
    1578   00:499C  C6 0C               			add		12
    1579   00:499E  47                  			ld		b,a
    1580   00:499F  DD 7E 00            			ld		a,(ix)
    1581   00:49A2  C6 0A               			add		10
    1582   00:49A4  B8                  			cp		b
    1583   00:49A5  D2 C5 49            			jp		nc,REGRESA_SIN_EFECTO
    1584   00:49A8                      
    1585   00:49A8  FD 7E 02            			ld		a,(iy+2)
    1586   00:49AB  C6 0A               			add		10
    1587   00:49AD  47                  			ld		b,a
    1588   00:49AE  DD 7E 02            			ld		a,(ix+2)
    1589   00:49B1  C6 16               			add		22
    1590   00:49B3  B8                  			cp		b
    1591   00:49B4  DA C5 49            			jp		c,REGRESA_SIN_EFECTO
    1592   00:49B7                      
    1593   00:49B7  78                  			ld		a,b
    1594   00:49B8  C6 0C               			add		12
    1595   00:49BA  47                  			ld		b,a
    1596   00:49BB  DD 7E 02            			ld		a,(ix+2)
    1597   00:49BE  C6 0A               			add		10
    1598   00:49C0  B8                  			cp		b
    1599   00:49C1  D2 C5 49            			jp		nc,REGRESA_SIN_EFECTO			
    1600   00:49C4                      
    1601   00:49C4  C9                  			ret
    1602   00:49C5                      
    1603   00:49C5                      REGRESA_SIN_EFECTO:
    1604   00:49C5                      
    1605   00:49C5  E1                  			pop		hl
    1606   00:49C6  C9                  			ret
    1607   00:49C7                      
    1608   00:49C7                      MIRA_GRAVEDAD:
    1609   00:49C7                      
    1610   00:49C7  3A 18 C0            			ld		a,(SPACE_PULSADO)
    1611   00:49CA  B7                  			or		a
    1612   00:49CB  C0                  			ret		nz
    1613   00:49CC                      
    1614   00:49CC  3A 27 C0            			ld		a,(SALTO_COLCHONETA)
    1615   00:49CF  FE 01               			cp		1
    1616   00:49D1  C8                  			ret		z
    1617   00:49D2                      
    1618   00:49D2  3A 2E C0            			ld		a,(QUE_SOY)
    1619   00:49D5  FE 01               			cp		1
    1620   00:49D7  C8                  			ret		z
    1621   00:49D8  FE 05               			cp		5
    1622   00:49DA  C8                  			ret		z
    1623   00:49DB                      
    1624   00:49DB                      .mira_si_sube:
    1625   00:49DB                      
    1626   00:49DB  3A 1A C0            			ld		a,(ATENCION_AL_SALTO)
    1627   00:49DE  B7                  			or		a
    1628   00:49DF  CA FD 49            			jp		z,.mira_si_baja
    1629   00:49E2                      
    1630   00:49E2  AF                  			xor		a
    1631   00:49E3  32 1A C0            			ld		(ATENCION_AL_SALTO),a
    1632   00:49E6                      
    1633   00:49E6  2A 0C C1            			ld		hl,(TYLE_POSIC_13)
    1634   00:49E9  11 E0 02            			ld		de,736
    1635   00:49EC  CD 20 00            			call	DCOMPR	
    1636   00:49EF  DA FD 49            			jp		c,.mira_si_baja
    1637   00:49F2                      
    1638   00:49F2  DD 21 33 C0         			ld		ix,ATRIBUTOS_SPRITES
    1639   00:49F6  DD 7E 00            			ld		a,(ix)
    1640   00:49F9  3D                  			dec		a
    1641   00:49FA  C3 06 51            			jp		COMUN_Y_CUATRO_SPRITES
    1642   00:49FD                      
    1643   00:49FD                      .mira_si_baja:
    1644   00:49FD                      
    1645   00:49FD  2A F4 C0            			ld		hl,(TYLE_POSIC_1)
    1646   00:4A00  11 20 02            			ld		de,544
    1647   00:4A03  CD 20 00            			call	DCOMPR		
    1648   00:4A06  D2 18 4A            			jp		nc,.reinicia_caida_o_muere
    1649   00:4A09                      		
    1650   00:4A09  2A F6 C0            			ld		hl,(TYLE_POSIC_2)
    1651   00:4A0C  11 20 02            			ld		de,544
    1652   00:4A0F  CD 20 00            			call	DCOMPR		
    1653   00:4A12  D2 18 4A            			jp		nc,.reinicia_caida_o_muere
    1654   00:4A15  C3 57 4A            			jp		.fall
    1655   00:4A18                      
    1656   00:4A18                      .reinicia_caida_o_muere:
    1657   00:4A18                      
    1658   00:4A18  3A 20 C0            			ld		a,(SUMA_ALTURA_CAIDA)
    1659   00:4A1B  FE 1E               			cp		30
    1660   00:4A1D  D2 4D 4A            			jp		nc,.reinicia_caida_o_muere_2
    1661   00:4A20  AF                  			xor		a
    1662   00:4A21  32 20 C0            			ld		(SUMA_ALTURA_CAIDA),a
    1663   00:4A24  3A 2D C0            			ld		a,(MUERTE)
    1664   00:4A27  B7                  			or		a
    1665   00:4A28  C0                  			ret		nz
    1666   00:4A29                      
    1667   00:4A29  3A 0C C0            			ld		a,(PANTALLA_ACTUAL)
    1668   00:4A2C  32 21 C0            			ld		(PANTALLA_ACTUAL_SAVE),a
    1669   00:4A2F                      
    1670   00:4A2F  3A 24 C0            			ld		a,(MEMORIZAMOS_POSICION)
    1671   00:4A32  B7                  			or		a
    1672   00:4A33  C8                  			ret		z
    1673   00:4A34  AF                  			xor		a
    1674   00:4A35  32 24 C0            			ld		(MEMORIZAMOS_POSICION),a
    1675   00:4A38  DD 21 33 C0         			ld		ix,ATRIBUTOS_SPRITES
    1676   00:4A3C  DD 7E 00            			ld		a,(ix)
    1677   00:4A3F  32 23 C0            			ld		(Y_SAVE),a
    1678   00:4A42  DD 7E 02            			ld		a,(ix+2)
    1679   00:4A45  32 22 C0            			ld		(X_SAVE),a
    1680   00:4A48  AF                  			xor		a
    1681   00:4A49  32 28 C0            			ld		(QUIERE_CUERDA),a
    1682   00:4A4C                      
    1683   00:4A4C  C9                  			ret
    1684   00:4A4D                      
    1685   00:4A4D                      .reinicia_caida_o_muere_2:
    1686   00:4A4D                      
    1687   00:4A4D  3E 01               			ld		a,1
    1688   00:4A4F  32 2D C0            			ld		(MUERTE),a
    1689   00:4A52  AF                  			xor		a
    1690   00:4A53  32 20 C0            			ld		(SUMA_ALTURA_CAIDA),a
    1691   00:4A56  C9                  			ret
    1692   00:4A57                      
    1693   00:4A57                      .fall:
    1694   00:4A57                      
    1695   00:4A57  3A 0C C0            			ld		a,(PANTALLA_ACTUAL)
    1696   00:4A5A  FE 19               			cp		25
    1697   00:4A5C  C2 76 4A            			jp		nz,.fall_cont
    1698   00:4A5F                      
    1699   00:4A5F  3A DE C0            			ld		a,(PUENTE_EXP)
    1700   00:4A62  FE 02               			cp		2
    1701   00:4A64  C2 76 4A            			jp		nz,.fall_cont
    1702   00:4A67                      
    1703   00:4A67  DD 21 33 C0         			ld		ix,ATRIBUTOS_SPRITES
    1704   00:4A6B  DD 7E 00            			ld		a,(ix)
    1705   00:4A6E  FE 38               			cp		#38
    1706   00:4A70  DA 76 4A            			jp		c,.fall_cont
    1707   00:4A73  FE 40               			cp		#40
    1708   00:4A75  D8                  			ret		c
    1709   00:4A76                      
    1710   00:4A76                      .fall_cont:
    1711   00:4A76                      
    1712   00:4A76  DD 21 33 C0         			ld		ix,ATRIBUTOS_SPRITES
    1713   00:4A7A  DD 7E 00            			ld		a,(ix)
    1714   00:4A7D  C6 02               			add		2
    1715   00:4A7F  CD 06 51            			call	COMUN_Y_CUATRO_SPRITES
    1716   00:4A82  3E 01               			ld		a,1
    1717   00:4A84  32 1A C0            			ld		(ATENCION_AL_SALTO),a
    1718   00:4A87                      			
    1719   00:4A87  3A 20 C0            			ld		a,(SUMA_ALTURA_CAIDA)
    1720   00:4A8A  3C                  			inc		a
    1721   00:4A8B  32 20 C0            			ld		(SUMA_ALTURA_CAIDA),a
    1722   00:4A8E                      
    1723   00:4A8E  3A 28 C0            			ld		a,(QUIERE_CUERDA)
    1724   00:4A91  FE 02               			cp		2
    1725   00:4A93  CA B3 4A            			jp		z,.no_morira
    1726   00:4A96  3A 2E C0            			ld		a,(QUE_SOY)
    1727   00:4A99  FE 06               			cp		6
    1728   00:4A9B  CA B3 4A            			jp		z,.no_morira
    1729   00:4A9E                      
    1730   00:4A9E  3A 0C C0            			ld		a,(PANTALLA_ACTUAL)
    1731   00:4AA1  FE 1C               			cp		28
    1732   00:4AA3  CA BB 4A            			jp		z,.fall_final
    1733   00:4AA6  FE 10               			cp		16
    1734   00:4AA8  CA BB 4A            			jp		z,.fall_final
    1735   00:4AAB                      
    1736   00:4AAB  3A D9 C0            			ld		a,(PARAGUAS)
    1737   00:4AAE  FE 02               			cp		2
    1738   00:4AB0  C2 BB 4A            			jp		nz,.fall_final
    1739   00:4AB3                      
    1740   00:4AB3                      .no_morira:
    1741   00:4AB3                      
    1742   00:4AB3  3A 20 C0            			ld		a,(SUMA_ALTURA_CAIDA)
    1743   00:4AB6  E6 07               			and		00000111b
    1744   00:4AB8  32 20 C0            			ld		(SUMA_ALTURA_CAIDA),a
    1745   00:4ABB                      
    1746   00:4ABB                      .fall_final:
    1747   00:4ABB                      
    1748   00:4ABB  E1                  			pop		hl
    1749   00:4ABC  C3 E3 42            			jp		BUCLE_CENTRAL.bucle_central_1
    1750   00:4ABF                      
    1751   00:4ABF                      CONTROLA_SI_SALE_DE_PANTALLA:
    1752   00:4ABF                      
    1753   00:4ABF  3A 2E C0            			ld		a,(QUE_SOY)
    1754   00:4AC2  FE 01               			cp		1
    1755   00:4AC4  CA 9D 4B            			jp		z,.d_i_a_a_aspiradora
    1756   00:4AC7  FE 05               			cp		5
    1757   00:4AC9  CA 9D 4B            			jp		z,.d_i_a_a_aspiradora
    1758   00:4ACC                      
    1759   00:4ACC  CD D3 4A            			call	.a_a
    1760   00:4ACF  CD 1E 4B            			call	.d_i
    1761   00:4AD2  C9                  			ret
    1762   00:4AD3                      
    1763   00:4AD3                      .a_a:
    1764   00:4AD3                      
    1765   00:4AD3  DD 21 33 C0         			ld		ix,ATRIBUTOS_SPRITES
    1766   00:4AD7  DD 7E 00            			ld		a,(ix)
    1767   00:4ADA                      
    1768   00:4ADA                      .abajo:
    1769   00:4ADA  FE 21               			cp		33
    1770   00:4ADC  DA 01 4B            			jp		c,.arriba_globo
    1771   00:4ADF  FE 8C               			cp		140
    1772   00:4AE1  DA EA 4A            			jp		c,.abajo_2
    1773   00:4AE4  FE F0               			cp		240
    1774   00:4AE6  DA 0D 4B            			jp		c,.arriba
    1775   00:4AE9                      
    1776   00:4AE9  C9                  			ret
    1777   00:4AEA                      
    1778   00:4AEA                      .abajo_2:
    1779   00:4AEA                      
    1780   00:4AEA  DD 7E 00            			ld		a,(ix)
    1781   00:4AED  FE 70               			cp		112
    1782   00:4AEF  D8                  			ret		c
    1783   00:4AF0                      
    1784   00:4AF0  3A 0C C0            			ld		a,(PANTALLA_ACTUAL)
    1785   00:4AF3  C6 0C               			add		12
    1786   00:4AF5  32 0C C0            			ld		(PANTALLA_ACTUAL),a
    1787   00:4AF8  E1                  			pop		hl
    1788   00:4AF9  3E 05               			ld		a,5
    1789   00:4AFB  32 17 C0            			ld		(DIRECCION_DONDE_VAMOS),a
    1790   00:4AFE  C3 AF 41            			jp		PINTA_LA_PANTALLA_DE_INICIO
    1791   00:4B01                      
    1792   00:4B01                      .arriba_globo:
    1793   00:4B01                      
    1794   00:4B01  3A 2E C0            			ld		a,(QUE_SOY)
    1795   00:4B04  FE 05               			cp		5
    1796   00:4B06  C0                  			ret		nz
    1797   00:4B07  3A 0C C0            			ld		a,(PANTALLA_ACTUAL)
    1798   00:4B0A  FE 0F               			cp		15
    1799   00:4B0C  C0                  			ret		nz
    1800   00:4B0D                      
    1801   00:4B0D                      .arriba:
    1802   00:4B0D                      
    1803   00:4B0D  3A 0C C0            			ld		a,(PANTALLA_ACTUAL)
    1804   00:4B10  D6 0C               			sub		12
    1805   00:4B12  32 0C C0            			ld		(PANTALLA_ACTUAL),a
    1806   00:4B15  E1                  			pop		hl
    1807   00:4B16  3E 01               			ld		a,1
    1808   00:4B18  32 17 C0            			ld		(DIRECCION_DONDE_VAMOS),a
    1809   00:4B1B  C3 AF 41            			jp		PINTA_LA_PANTALLA_DE_INICIO
    1810   00:4B1E                      
    1811   00:4B1E                      .d_i:
    1812   00:4B1E                      
    1813   00:4B1E  DD 21 33 C0         			ld		ix,ATRIBUTOS_SPRITES
    1814   00:4B22  DD 7E 02            			ld		a,(ix+2)
    1815   00:4B25                      
    1816   00:4B25                      .derecha:
    1817   00:4B25                      
    1818   00:4B25  FE DF               			cp		255-32
    1819   00:4B27  DA 62 4B            			jp		c,.izquierda
    1820   00:4B2A  3A 17 C0            			ld		a,(DIRECCION_DONDE_VAMOS)
    1821   00:4B2D  FE 03               			cp		3
    1822   00:4B2F  C0                  			ret		nz
    1823   00:4B30                      
    1824   00:4B30  3A 0C C0            			ld		a,(PANTALLA_ACTUAL)
    1825   00:4B33  FE 0B               			cp		11
    1826   00:4B35  CA 59 4B            			jp		z,.right_special
    1827   00:4B38  FE 17               			cp		23
    1828   00:4B3A  CA 59 4B            			jp		z,.right_special
    1829   00:4B3D  FE 23               			cp		35
    1830   00:4B3F  CA 59 4B            			jp		z,.right_special
    1831   00:4B42  FE 2F               			cp		47
    1832   00:4B44  CA 59 4B            			jp		z,.right_special
    1833   00:4B47  FE 3B               			cp		59
    1834   00:4B49  CA 59 4B            			jp		z,.right_special
    1835   00:4B4C  FE 47               			cp		71
    1836   00:4B4E  CA 59 4B            			jp		z,.right_special
    1837   00:4B51  3C                  			inc		a
    1838   00:4B52  32 0C C0            			ld		(PANTALLA_ACTUAL),a
    1839   00:4B55  E1                  			pop		hl
    1840   00:4B56  C3 AF 41            			jp		PINTA_LA_PANTALLA_DE_INICIO
    1841   00:4B59                      
    1842   00:4B59                      .right_special:
    1843   00:4B59                      
    1844   00:4B59  D6 0B               			sub		11
    1845   00:4B5B  32 0C C0            			ld		(PANTALLA_ACTUAL),a
    1846   00:4B5E  E1                  			pop		hl
    1847   00:4B5F  C3 AF 41            			jp		PINTA_LA_PANTALLA_DE_INICIO
    1848   00:4B62                      
    1849   00:4B62                      .izquierda:
    1850   00:4B62                      
    1851   00:4B62  FE 01               			cp		1
    1852   00:4B64  D0                  			ret		nc
    1853   00:4B65  3A 17 C0            			ld		a,(DIRECCION_DONDE_VAMOS)
    1854   00:4B68  FE 07               			cp		7
    1855   00:4B6A  C0                  			ret		nz			
    1856   00:4B6B                      
    1857   00:4B6B  3A 0C C0            			ld		a,(PANTALLA_ACTUAL)
    1858   00:4B6E  FE 00               			cp		0
    1859   00:4B70  CA 94 4B            			jp		z,.left_special			
    1860   00:4B73  FE 0C               			cp		12
    1861   00:4B75  CA 94 4B            			jp		z,.left_special			
    1862   00:4B78  FE 18               			cp		24
    1863   00:4B7A  CA 94 4B            			jp		z,.left_special			
    1864   00:4B7D  FE 24               			cp		36
    1865   00:4B7F  CA 94 4B            			jp		z,.left_special			
    1866   00:4B82  FE 30               			cp		48
    1867   00:4B84  CA 94 4B            			jp		z,.left_special			
    1868   00:4B87  FE 3C               			cp		60
    1869   00:4B89  CA 94 4B            			jp		z,.left_special			
    1870   00:4B8C  3D                  			dec		a
    1871   00:4B8D  32 0C C0            			ld		(PANTALLA_ACTUAL),a
    1872   00:4B90  E1                  			pop		hl
    1873   00:4B91  C3 AF 41            			jp		PINTA_LA_PANTALLA_DE_INICIO
    1874   00:4B94                      
    1875   00:4B94                      .left_special:
    1876   00:4B94                      
    1877   00:4B94  C6 0B               			add		11
    1878   00:4B96  32 0C C0            			ld		(PANTALLA_ACTUAL),a
    1879   00:4B99  E1                  			pop		hl
    1880   00:4B9A  C3 AF 41            			jp		PINTA_LA_PANTALLA_DE_INICIO
    1881   00:4B9D                      
    1882   00:4B9D                      .d_i_a_a_aspiradora:
    1883   00:4B9D                      
    1884   00:4B9D  CD DB 4B            			call	.d_i_aspiradora
    1885   00:4BA0  3A 0C C0            			ld		a,(PANTALLA_ACTUAL)
    1886   00:4BA3  FE 14               			cp		20
    1887   00:4BA5  CA AD 4B            			jp		z,.a_a_aspiradora
    1888   00:4BA8  FE 08               			cp      8
    1889   00:4BAA  C2 D3 4A            			jp		nz,.a_a
    1890   00:4BAD                      
    1891   00:4BAD                      .a_a_aspiradora:
    1892   00:4BAD                      
    1893   00:4BAD  DD 7E 00            			ld		a,(ix)
    1894   00:4BB0                      
    1895   00:4BB0                      .abajo_aspiradora:
    1896   00:4BB0                      
    1897   00:4BB0  FE 60               			cp		96
    1898   00:4BB2  DA C2 4B            			jp		c,.arriba_aspiradora
    1899   00:4BB5  3A 0C C0            			ld		a,(PANTALLA_ACTUAL)
    1900   00:4BB8  FE 14               			cp		20
    1901   00:4BBA  C2 EA 4A            			jp		nz,.abajo_2
    1902   00:4BBD                      			
    1903   00:4BBD  3E 60               			ld		a,96
    1904   00:4BBF  C3 D8 4B            			jp		.comun_arr_aba_aspir
    1905   00:4BC2                      
    1906   00:4BC2                      .arriba_aspiradora:
    1907   00:4BC2                      
    1908   00:4BC2  3A 17 C0            			ld		a,(DIRECCION_DONDE_VAMOS)
    1909   00:4BC5  FE 01               			cp		1
    1910   00:4BC7  C0                  			ret		nz
    1911   00:4BC8                      
    1912   00:4BC8  DD 7E 00            			ld		a,(ix)
    1913   00:4BCB  FE 02               			cp		2
    1914   00:4BCD  D0                  			ret		nc
    1915   00:4BCE  3A 0C C0            			ld		a,(PANTALLA_ACTUAL)
    1916   00:4BD1  FE 08               			cp		8
    1917   00:4BD3  C2 0D 4B            			jp		nz,.arriba
    1918   00:4BD6                      
    1919   00:4BD6  3E 02               			ld		a,2
    1920   00:4BD8                      
    1921   00:4BD8                      .comun_arr_aba_aspir:
    1922   00:4BD8                      
    1923   00:4BD8  C3 06 51            			jp		COMUN_Y_CUATRO_SPRITES
    1924   00:4BDB                      
    1925   00:4BDB                      .d_i_aspiradora:
    1926   00:4BDB                      
    1927   00:4BDB  DD 21 33 C0         			ld		ix,ATRIBUTOS_SPRITES
    1928   00:4BDF  DD 7E 02            			ld		a,(ix+2)
    1929   00:4BE2                      
    1930   00:4BE2                      .derecha_aspiradora:
    1931   00:4BE2                      
    1932   00:4BE2  FE DF               			cp		255-32
    1933   00:4BE4  DA EC 4B            			jp		c,.izquierda_aspiradora
    1934   00:4BE7  3E DE               			ld		a,255-33
    1935   00:4BE9  C3 F1 4B            			jp		.comun_der_izq_aspir
    1936   00:4BEC                      
    1937   00:4BEC                      .izquierda_aspiradora:
    1938   00:4BEC                      
    1939   00:4BEC  FE 04               			cp		4
    1940   00:4BEE  D0                  			ret		nc
    1941   00:4BEF  3E 02               			ld		a,2
    1942   00:4BF1                      
    1943   00:4BF1                      .comun_der_izq_aspir:
    1944   00:4BF1                      
    1945   00:4BF1  C3 F6 50            			jp		COMUN_X_CUATRO_SPRITES	
    1946   00:4BF4                      
    1947   00:4BF4                      STICK:
    1948   00:4BF4                      
    1949   00:4BF4  3A 28 C0            			ld		a,(QUIERE_CUERDA)
    1950   00:4BF7  FE 02               			cp		2
    1951   00:4BF9  C2 1A 4C            			jp		nz,.stick_continua
    1952   00:4BFC  DD 21 33 C0         			ld		ix,ATRIBUTOS_SPRITES
    1953   00:4C00  DD 7E 02            			ld		a,(ix+2)
    1954   00:4C03  FE 36               			cp		#36
    1955   00:4C05  DA 1A 4C            			jp		c,.stick_continua
    1956   00:4C08  FE 3C               			cp		#3c
    1957   00:4C0A  D2 1A 4C            			jp		nc,.stick_continua
    1958   00:4C0D  3A 0C C0            			ld		a,(PANTALLA_ACTUAL)
    1959   00:4C10  FE 10               			cp		16
    1960   00:4C12  CA 41 4C            			jp		z,.stick_continua_2
    1961   00:4C15  FE 1C               			cp		28
    1962   00:4C17  CA 41 4C            			jp		z,.stick_continua_2
    1963   00:4C1A                      
    1964   00:4C1A                      .stick_continua:
    1965   00:4C1A                      
    1966   00:4C1A  3A 18 C0            			ld		a,(SPACE_PULSADO)
    1967   00:4C1D  B7                  			or		a
    1968   00:4C1E  C2 9D 4C            			jp		nz,.jump_on_place
    1969   00:4C21                      
    1970   00:4C21  3A 27 C0            			ld		a,(SALTO_COLCHONETA)
    1971   00:4C24  FE 01               			cp		1
    1972   00:4C26  C8                  			ret		z
    1973   00:4C27                      
    1974   00:4C27  3A 2E C0            			ld		a,(QUE_SOY)
    1975   00:4C2A  FE 05               			cp		5
    1976   00:4C2C  CA 49 4C            			jp		z,.stick_real
    1977   00:4C2F                      
    1978   00:4C2F  3A 28 C0            			ld		a,(QUIERE_CUERDA)
    1979   00:4C32  FE 02               			cp		2
    1980   00:4C34  CA 49 4C            			jp		z,.stick_real
    1981   00:4C37                      
    1982   00:4C37  AF                  			xor		a
    1983   00:4C38  CD D8 00            			call	GTTRIG
    1984   00:4C3B  32 18 C0            			ld		(SPACE_PULSADO),a
    1985   00:4C3E  C3 49 4C            			jp		.stick_real
    1986   00:4C41                      
    1987   00:4C41                      .stick_continua_2:
    1988   00:4C41                      
    1989   00:4C41  3E 05               			ld		a,5
    1990   00:4C43  32 17 C0            			ld		(DIRECCION_DONDE_VAMOS),a
    1991   00:4C46  C3 7A 4C            			jp		.stick_real_2
    1992   00:4C49                      
    1993   00:4C49                      .stick_real:
    1994   00:4C49                      
    1995   00:4C49  3A 28 C0            			ld		a,(QUIERE_CUERDA)
    1996   00:4C4C  B7                  			or		a
    1997   00:4C4D  CA 71 4C            			jp		z,.stick_real_1
    1998   00:4C50  FE 02               			cp		2
    1999   00:4C52  CA 71 4C            			jp		z,.stick_real_1
    2000   00:4C55                      
    2001   00:4C55  3A DF C0            			ld		a,(FLAUTA)
    2002   00:4C58  FE 02               			cp		2
    2003   00:4C5A  DA 69 4C            			jp		c,.stick_real_0_5
    2004   00:4C5D                      
    2005   00:4C5D  DD 21 33 C0         			ld		ix,ATRIBUTOS_SPRITES
    2006   00:4C61  DD 7E 02            			ld		a,(ix+2)
    2007   00:4C64  D6 02               			sub		2
    2008   00:4C66  DD 77 02            			ld		(ix+2),a
    2009   00:4C69                      
    2010   00:4C69                      .stick_real_0_5:
    2011   00:4C69                      
    2012   00:4C69  3E 03               			ld		a,3
    2013   00:4C6B  32 17 C0            			ld		(DIRECCION_DONDE_VAMOS),a
    2014   00:4C6E  C3 7A 4C            			jp		.stick_real_2
    2015   00:4C71                      
    2016   00:4C71                      .stick_real_1:
    2017   00:4C71                      
    2018   00:4C71  AF                  			xor		a												; Comprobando si ha tocado los cursores
    2019   00:4C72  CD D5 00            			call	GTSTCK		
    2020   00:4C75  B7                  			or		a
    2021   00:4C76  32 17 C0            			ld		(DIRECCION_DONDE_VAMOS),a
    2022   00:4C79  C8                  			ret		z
    2023   00:4C7A                      
    2024   00:4C7A                      .stick_real_2:
    2025   00:4C7A                      
    2026   00:4C7A  DD 21 33 C0         			ld		ix,ATRIBUTOS_SPRITES
    2027   00:4C7E  FE 01               			cp		1
    2028   00:4C80  CA CE 4F            			jp		z,.up
    2029   00:4C83  FE 03               			cp		3
    2030   00:4C85  CA 7C 4E            			jp		z,.right
    2031   00:4C88  FE 05               			cp		5
    2032   00:4C8A  CA 6E 50            			jp		z,.down
    2033   00:4C8D  FE 07               			cp		7
    2034   00:4C8F  CA FE 4E            			jp		z,.left
    2035   00:4C92                      
    2036   00:4C92  3A 18 C0            			ld		a,(SPACE_PULSADO)
    2037   00:4C95  B7                  			or		a
    2038   00:4C96  C8                  			ret		z
    2039   00:4C97                      
    2040   00:4C97  3A 2E C0            			ld		a,(QUE_SOY)
    2041   00:4C9A  FE 01               			cp		1
    2042   00:4C9C  C8                  			ret		z
    2043   00:4C9D                      			
    2044   00:4C9D                      .jump_on_place:
    2045   00:4C9D                      
    2046   00:4C9D  DD 21 33 C0         			ld		ix,ATRIBUTOS_SPRITES
    2047   00:4CA1                      			
    2048   00:4CA1  DD 7E 01            			ld		a,(ix+1)
    2049   00:4CA4  E6 BF               			and		10111111b
    2050   00:4CA6  DD 77 01            			ld		(ix+1),a
    2051   00:4CA9  DD 7E 05            			ld		a,(ix+5)
    2052   00:4CAC  E6 BF               			and		10111111b
    2053   00:4CAE  DD 77 05            			ld		(ix+5),a
    2054   00:4CB1  DD 7E 09            			ld		a,(ix+9)
    2055   00:4CB4  E6 BF               			and		10111111b
    2056   00:4CB6  DD 77 09            			ld		(ix+9),a
    2057   00:4CB9  DD 7E 0D            			ld		a,(ix+13)
    2058   00:4CBC  E6 BF               			and		10111111b
    2059   00:4CBE  DD 77 0D            			ld		(ix+13),a
    2060   00:4CC1                      
    2061   00:4CC1  3A 19 C0            			ld		a,(PROCESO_DE_SALTO)
    2062   00:4CC4                      
    2063   00:4CC4  3A 17 C0            			ld		a,(DIRECCION_DONDE_VAMOS)
    2064   00:4CC7  FE 03               			cp		3
    2065   00:4CC9  CA 1F 4D            			jp		z,.be_ware_right
    2066   00:4CCC  FE 07               			cp		7
    2067   00:4CCE  C2 68 4D            			jp		nz,.control_fall
    2068   00:4CD1                      
    2069   00:4CD1                      .be_ware_left
    2070   00:4CD1                      
    2071   00:4CD1  3A 19 C0            			ld		a,(PROCESO_DE_SALTO)
    2072   00:4CD4  FE 07               			cp		7
    2073   00:4CD6  DA E1 4C            			jp		c,.see_left_up
    2074   00:4CD9  FE 08               			cp		8
    2075   00:4CDB  CA F5 4C            			jp		z,.see_left
    2076   00:4CDE  C3 04 4D            			jp		.see_left_down
    2077   00:4CE1                      
    2078   00:4CE1                      .see_left_up:
    2079   00:4CE1                      
    2080   00:4CE1  2A FE C0            			ld		hl,(TYLE_POSIC_6)
    2081   00:4CE4  11 60 03            			ld		de,864
    2082   00:4CE7  CD 20 00            			call	DCOMPR
    2083   00:4CEA  DA 68 4D            			jp		c,.control_fall
    2084   00:4CED                      
    2085   00:4CED                      .borra_desplazamiento:
    2086   00:4CED                      
    2087   00:4CED  3E 00               			ld		a,0
    2088   00:4CEF  32 17 C0            			ld		(DIRECCION_DONDE_VAMOS),a
    2089   00:4CF2  C3 92 4D            			jp		.doing_the_jump
    2090   00:4CF5                      
    2091   00:4CF5                      .see_left:
    2092   00:4CF5                      
    2093   00:4CF5  2A FC C0            			ld		hl,(TYLE_POSIC_5)
    2094   00:4CF8  11 60 03            			ld		de,864
    2095   00:4CFB  CD 20 00            			call	DCOMPR
    2096   00:4CFE  DA 68 4D            			jp		c,.control_fall
    2097   00:4D01  C3 ED 4C            			jp		.borra_desplazamiento
    2098   00:4D04                      
    2099   00:4D04                      .see_left_down:
    2100   00:4D04                      
    2101   00:4D04  2A FC C0            			ld		hl,(TYLE_POSIC_5)
    2102   00:4D07  11 60 03            			ld		de,864
    2103   00:4D0A  CD 20 00            			call	DCOMPR
    2104   00:4D0D  D2 ED 4C            			jp		nc,.borra_desplazamiento
    2105   00:4D10  2A 04 C1            			ld		hl,(TYLE_POSIC_9)
    2106   00:4D13  11 60 03            			ld		de,864
    2107   00:4D16  CD 20 00            			call	DCOMPR
    2108   00:4D19  DA 68 4D            			jp		c,.control_fall
    2109   00:4D1C  C3 ED 4C            			jp		.borra_desplazamiento
    2110   00:4D1F                      
    2111   00:4D1F                      .be_ware_right:
    2112   00:4D1F                      
    2113   00:4D1F  3A 19 C0            			ld		a,(PROCESO_DE_SALTO)
    2114   00:4D22  FE 07               			cp		7
    2115   00:4D24  DA 2F 4D            			jp		c,.see_right_up
    2116   00:4D27  FE 08               			cp		8
    2117   00:4D29  CA 3E 4D            			jp		z,.see_right
    2118   00:4D2C  C3 4D 4D            			jp		.see_right_down
    2119   00:4D2F                      
    2120   00:4D2F                      .see_right_up:
    2121   00:4D2F                      
    2122   00:4D2F  2A F8 C0            			ld		hl,(TYLE_POSIC_3)
    2123   00:4D32  11 60 03            			ld		de,864
    2124   00:4D35  CD 20 00            			call	DCOMPR
    2125   00:4D38  DA 68 4D            			jp		c,.control_fall
    2126   00:4D3B  C3 ED 4C            			jp		.borra_desplazamiento
    2127   00:4D3E                      
    2128   00:4D3E                      .see_right:
    2129   00:4D3E                      
    2130   00:4D3E  2A FA C0            			ld		hl,(TYLE_POSIC_4)
    2131   00:4D41  11 60 03            			ld		de,864
    2132   00:4D44  CD 20 00            			call	DCOMPR
    2133   00:4D47  DA 68 4D            			jp		c,.control_fall
    2134   00:4D4A  C3 ED 4C            			jp		.borra_desplazamiento
    2135   00:4D4D                      
    2136   00:4D4D                      .see_right_down:
    2137   00:4D4D                      
    2138   00:4D4D  2A FA C0            			ld		hl,(TYLE_POSIC_4)
    2139   00:4D50  11 60 03            			ld		de,864
    2140   00:4D53  CD 20 00            			call	DCOMPR
    2141   00:4D56  D2 ED 4C            			jp		nc,.borra_desplazamiento
    2142   00:4D59  2A 06 C1            			ld		hl,(TYLE_POSIC_10)
    2143   00:4D5C  11 60 03            			ld		de,864
    2144   00:4D5F  CD 20 00            			call	DCOMPR
    2145   00:4D62  DA 68 4D            			jp		c,.control_fall
    2146   00:4D65  C3 ED 4C            			jp		.borra_desplazamiento
    2147   00:4D68                      
    2148   00:4D68                      .control_fall:
    2149   00:4D68                      
    2150   00:4D68  3A 19 C0            			ld		a,(PROCESO_DE_SALTO)
    2151   00:4D6B  FE 07               			cp		7
    2152   00:4D6D  DA 92 4D            			jp		c,.doing_the_jump
    2153   00:4D70                      
    2154   00:4D70  2A 08 C1            			ld		hl,(TYLE_POSIC_11)
    2155   00:4D73  11 E0 02            			ld		de,736
    2156   00:4D76  CD 20 00            			call	DCOMPR			
    2157   00:4D79  D2 88 4D            			jp		nc,.stoping_the_jump
    2158   00:4D7C                      
    2159   00:4D7C  2A 0A C1            			ld		hl,(TYLE_POSIC_12)
    2160   00:4D7F  11 E0 02            			ld		de,736
    2161   00:4D82  CD 20 00            			call	DCOMPR	
    2162   00:4D85  DA 92 4D            			jp		c,.doing_the_jump
    2163   00:4D88                      
    2164   00:4D88                      .stoping_the_jump:
    2165   00:4D88                      
    2166   00:4D88  3E 0F               			ld		a,15
    2167   00:4D8A  32 19 C0            			ld		(PROCESO_DE_SALTO),a
    2168   00:4D8D  3E 01               			ld		a,1
    2169   00:4D8F  32 1A C0            			ld		(ATENCION_AL_SALTO),a
    2170   00:4D92                      
    2171   00:4D92                      .doing_the_jump:
    2172   00:4D92                      
    2173   00:4D92  FD 21 C2 52         			ld		iy,RELACION_POSICION_DEL_SALTO
    2174   00:4D96  3A 19 C0            			ld		a,(PROCESO_DE_SALTO)
    2175   00:4D99  87                  			add		a
    2176   00:4D9A  16 00               			ld		d,0
    2177   00:4D9C  5F                  			ld		e,a
    2178   00:4D9D  FD 19               			add		iy,de
    2179   00:4D9F  FD 6E 00            			ld		l,(iy)
    2180   00:4DA2  FD 66 01            			ld		h,(iy+1)
    2181   00:4DA5  E9                  			jp		hl
    2182   00:4DA6                      
    2183   00:4DA6                      .paso_1:
    2184   00:4DA6                      
    2185   00:4DA6  FD 21 5F 52         			ld		iy,DATOS_PASO_1_SALTO
    2186   00:4DAA  C3 E5 4D            			jp		.rutina_salto
    2187   00:4DAD                      
    2188   00:4DAD                      .paso_2:
    2189   00:4DAD                      
    2190   00:4DAD  FD 21 6A 52         			ld		iy,DATOS_PASO_2_SALTO
    2191   00:4DB1  C3 E5 4D            			jp		.rutina_salto
    2192   00:4DB4                      
    2193   00:4DB4                      .paso_3:
    2194   00:4DB4                      
    2195   00:4DB4  FD 21 75 52         			ld		iy,DATOS_PASO_3_SALTO
    2196   00:4DB8  C3 E5 4D            			jp		.rutina_salto
    2197   00:4DBB                      
    2198   00:4DBB                      .paso_4:
    2199   00:4DBB                      
    2200   00:4DBB  FD 21 80 52         			ld		iy,DATOS_PASO_4_SALTO
    2201   00:4DBF  C3 E5 4D            			jp		.rutina_salto
    2202   00:4DC2                      
    2203   00:4DC2                      .paso_5:
    2204   00:4DC2                      
    2205   00:4DC2  FD 21 8B 52         			ld		iy,DATOS_PASO_5_SALTO
    2206   00:4DC6  C3 E5 4D            			jp		.rutina_salto
    2207   00:4DC9                      
    2208   00:4DC9                      .paso_6:
    2209   00:4DC9                      
    2210   00:4DC9  FD 21 96 52         			ld		iy,DATOS_PASO_6_SALTO
    2211   00:4DCD  C3 E5 4D            			jp		.rutina_salto
    2212   00:4DD0                      
    2213   00:4DD0                      .paso_7:
    2214   00:4DD0                      
    2215   00:4DD0  FD 21 A1 52         			ld		iy,DATOS_PASO_7_SALTO
    2216   00:4DD4  C3 E5 4D            			jp		.rutina_salto
    2217   00:4DD7                      
    2218   00:4DD7                      .paso_8:
    2219   00:4DD7                      
    2220   00:4DD7  FD 21 AC 52         			ld		iy,DATOS_PASO_8_SALTO
    2221   00:4DDB  C3 E5 4D            			jp		.rutina_salto
    2222   00:4DDE                      
    2223   00:4DDE                      .paso_9:
    2224   00:4DDE                      
    2225   00:4DDE  FD 21 B7 52         			ld		iy,DATOS_PASO_9_SALTO
    2226   00:4DE2  C3 E5 4D            			jp		.rutina_salto
    2227   00:4DE5                      
    2228   00:4DE5                      .rutina_salto:
    2229   00:4DE5                      
    2230   00:4DE5  FD 46 00            			ld		b,(iy)
    2231   00:4DE8  FD 4E 01            			ld		c,(iy+1)
    2232   00:4DEB  DD 7E 01            			ld		a,(ix+1)
    2233   00:4DEE  B0                  			or		b
    2234   00:4DEF  A1                  			and		c
    2235   00:4DF0  DD 77 01            			ld		(ix+1),a
    2236   00:4DF3  FD 46 02            			ld		b,(iy+2)
    2237   00:4DF6  FD 4E 03            			ld		c,(iy+3)
    2238   00:4DF9  DD 7E 05            			ld		a,(ix+5)
    2239   00:4DFC  B0                  			or		b
    2240   00:4DFD  A1                  			and		c
    2241   00:4DFE  DD 77 05            			ld		(ix+5),a
    2242   00:4E01  FD 46 04            			ld		b,(iy+4)
    2243   00:4E04  FD 4E 05            			ld		c,(iy+5)
    2244   00:4E07  DD 7E 09            			ld		a,(ix+9)
    2245   00:4E0A  B0                  			or		b
    2246   00:4E0B  A1                  			and		c
    2247   00:4E0C  DD 77 09            			ld		(ix+9),a
    2248   00:4E0F  FD 46 06            			ld		b,(iy+6)
    2249   00:4E12  FD 4E 07            			ld		c,(iy+7)
    2250   00:4E15  DD 7E 0D            			ld		a,(ix+13)
    2251   00:4E18  B0                  			or		b
    2252   00:4E19  A1                  			and		c
    2253   00:4E1A  DD 77 0D            			ld		(ix+13),a
    2254   00:4E1D                      
    2255   00:4E1D  FD 7E 08            			ld		a,(iy+8)
    2256   00:4E20  FE 01               			cp		1
    2257   00:4E22  CA 2F 4E            			jp		z,.aumenta_la_y
    2258   00:4E25                      
    2259   00:4E25                      .disminuye_la_y:
    2260   00:4E25                      
    2261   00:4E25  FD 46 09            			ld		b,(iy+9)
    2262   00:4E28  DD 7E 00            			ld		a,(ix)
    2263   00:4E2B  90                  			sub		b
    2264   00:4E2C  C3 36 4E            			jp		.comun_aum_dism
    2265   00:4E2F                      
    2266   00:4E2F                      .aumenta_la_y:
    2267   00:4E2F                      
    2268   00:4E2F  FD 46 09            			ld		b,(iy+9)
    2269   00:4E32  DD 7E 00            			ld		a,(ix)
    2270   00:4E35  80                  			add		b
    2271   00:4E36                      
    2272   00:4E36                      .comun_aum_dism:
    2273   00:4E36                      
    2274   00:4E36  CD 06 51            			call	COMUN_Y_CUATRO_SPRITES
    2275   00:4E39                      
    2276   00:4E39  FD 7E 0A            			ld		a,(iy+10)
    2277   00:4E3C  B7                  			or		a
    2278   00:4E3D  CA 4D 4E            			jp		z,.comun_salto
    2279   00:4E40                      
    2280   00:4E40  AF                  			xor		a
    2281   00:4E41  32 19 C0            			ld		(PROCESO_DE_SALTO),a
    2282   00:4E44  32 18 C0            			ld		(SPACE_PULSADO),a
    2283   00:4E47  3E 02               			ld		a,2
    2284   00:4E49  32 1B C0            			ld		(POSE_PROTA),a
    2285   00:4E4C  C9                  			ret
    2286   00:4E4D                      
    2287   00:4E4D                      .comun_salto:
    2288   00:4E4D                      
    2289   00:4E4D  3A 17 C0            			ld		a,(DIRECCION_DONDE_VAMOS)
    2290   00:4E50  FE 03               			cp		3
    2291   00:4E52  CA 5D 4E            			jp		z,.salto_derecha
    2292   00:4E55  FE 07               			cp		7
    2293   00:4E57  CA 65 4E            			jp		z,.salto_izquierda
    2294   00:4E5A  C3 74 4E            			jp		.solo_salto
    2295   00:4E5D                      
    2296   00:4E5D                      .salto_derecha:
    2297   00:4E5D                      
    2298   00:4E5D  DD 7E 02            			ld		a,(ix+2)
    2299   00:4E60  C6 02               			add		2
    2300   00:4E62  C3 6A 4E            			jp		.comun_ambos_saltos
    2301   00:4E65                      
    2302   00:4E65                      .salto_izquierda:
    2303   00:4E65                      
    2304   00:4E65  DD 7E 02            			ld		a,(ix+2)
    2305   00:4E68  D6 02               			sub		2
    2306   00:4E6A                      
    2307   00:4E6A                      .comun_ambos_saltos:
    2308   00:4E6A                      
    2309   00:4E6A  CD F6 50            			call	COMUN_X_CUATRO_SPRITES
    2310   00:4E6D  C3 74 4E            			jp		.solo_salto
    2311   00:4E70                      
    2312   00:4E70                      .prev_solo_salto:
    2313   00:4E70                      
    2314   00:4E70  AF                  			xor		a
    2315   00:4E71  32 17 C0            			ld		(DIRECCION_DONDE_VAMOS),a
    2316   00:4E74                      
    2317   00:4E74                      .solo_salto:
    2318   00:4E74                      
    2319   00:4E74  3A 19 C0            			ld		a,(PROCESO_DE_SALTO)
    2320   00:4E77  3C                  			inc		a
    2321   00:4E78  32 19 C0            			ld		(PROCESO_DE_SALTO),a
    2322   00:4E7B  C9                  			ret
    2323   00:4E7C                      
    2324   00:4E7C                      .right:
    2325   00:4E7C                      
    2326   00:4E7C  3A 2E C0            			ld		a,(QUE_SOY)
    2327   00:4E7F  FE 01               			cp		1
    2328   00:4E81  CA D6 4E            			jp		z,.right_aspiradora
    2329   00:4E84                      
    2330   00:4E84  2A FA C0            			ld		hl,(TYLE_POSIC_4)
    2331   00:4E87  11 60 03            			ld		de,864
    2332   00:4E8A  CD 20 00            			call	DCOMPR
    2333   00:4E8D  D0                  			ret		nc
    2334   00:4E8E                      
    2335   00:4E8E  CD 80 4F            			call	.right_left_comun_1
    2336   00:4E91  E6 9F               			and		10011111b
    2337   00:4E93  F6 20               			or		00100000b
    2338   00:4E95  CD 8E 4F            			call	.right_left_comun_2
    2339   00:4E98  E6 9F               			and		10011111b
    2340   00:4E9A  F6 20               			or		00100000b
    2341   00:4E9C  CD 98 4F            			call	.right_left_comun_3
    2342   00:4E9F  E6 9F               			and		10011111b
    2343   00:4EA1  F6 20               			or		00100000b
    2344   00:4EA3  CD A2 4F            			call	.right_left_comun_4
    2345   00:4EA6  E6 9F               			and		10011111b
    2346   00:4EA8  F6 20               			or		00100000b
    2347   00:4EAA  CD AC 4F            			call	.right_left_comun_5
    2348   00:4EAD  C6 02               			add		2
    2349   00:4EAF  CD F6 50            			call	COMUN_X_CUATRO_SPRITES
    2350   00:4EB2                      
    2351   00:4EB2  3A 2E C0            			ld		a,(QUE_SOY)
    2352   00:4EB5  FE 05               			cp		5
    2353   00:4EB7  C0                  			ret		nz
    2354   00:4EB8  3A DB C0            			ld		a,(SOPLADOR)
    2355   00:4EBB  FE 02               			cp		2
    2356   00:4EBD  C0                  			ret		nz
    2357   00:4EBE                      
    2358   00:4EBE                      .extra_globo_right:
    2359   00:4EBE                      
    2360   00:4EBE  DD 21 73 C0         			ld		ix,ATRIBUTOS_SPRITES+64
    2361   00:4EC2  DD 7E 02            			ld		a,(ix+2)
    2362   00:4EC5  C6 02               			add		2
    2363   00:4EC7  CD F6 50            			call	COMUN_X_CUATRO_SPRITES
    2364   00:4ECA  DD 21 83 C0         			ld		ix,ATRIBUTOS_SPRITES+80
    2365   00:4ECE  DD 7E 02            			ld		a,(ix+2)
    2366   00:4ED1  C6 02               			add		2
    2367   00:4ED3  C3 F6 50            			jp		COMUN_X_CUATRO_SPRITES			
    2368   00:4ED6                      
    2369   00:4ED6                      
    2370   00:4ED6                      .right_aspiradora:
    2371   00:4ED6                      
    2372   00:4ED6  DD 7E 01            			ld		a,(ix+1)
    2373   00:4ED9  F6 20               			or		00100000b
    2374   00:4EDB  DD 77 01            			ld		(ix+1),a
    2375   00:4EDE  DD 7E 05            			ld		a,(ix+5)
    2376   00:4EE1  F6 20               			or		00100000b
    2377   00:4EE3  DD 77 05            			ld		(ix+5),a
    2378   00:4EE6  DD 7E 09            			ld		a,(ix+9)
    2379   00:4EE9  F6 20               			or		00100000b
    2380   00:4EEB  DD 77 09            			ld		(ix+9),a
    2381   00:4EEE  DD 7E 0D            			ld		a,(ix+13)
    2382   00:4EF1  F6 20               			or		00100000b
    2383   00:4EF3  DD 77 0D            			ld		(ix+13),a
    2384   00:4EF6  CD B2 4F            			call	.right_left_comun_6
    2385   00:4EF9  C6 02               			add		2
    2386   00:4EFB  C3 F6 50            			jp		COMUN_X_CUATRO_SPRITES
    2387   00:4EFE                      
    2388   00:4EFE                      .left:
    2389   00:4EFE                      
    2390   00:4EFE  3A 2E C0            			ld		a,(QUE_SOY)
    2391   00:4F01  FE 01               			cp		1
    2392   00:4F03  CA 58 4F            			jp		z,.left_aspiradora
    2393   00:4F06                      
    2394   00:4F06  2A FC C0            			ld		hl,(TYLE_POSIC_5)
    2395   00:4F09  11 60 03            			ld		de,864
    2396   00:4F0C  CD 20 00            			call	DCOMPR
    2397   00:4F0F  D0                  			ret		nc
    2398   00:4F10                      
    2399   00:4F10  CD 80 4F            			call	.right_left_comun_1
    2400   00:4F13  E6 9F               			and		10011111b
    2401   00:4F15  CD 8E 4F            			call	.right_left_comun_2
    2402   00:4F18  E6 9F               			and		10011111b
    2403   00:4F1A  CD 98 4F            			call	.right_left_comun_3
    2404   00:4F1D  E6 9F               			and		10011111b
    2405   00:4F1F  CD A2 4F            			call	.right_left_comun_4
    2406   00:4F22  E6 9F               			and		10011111b
    2407   00:4F24  CD AC 4F            			call	.right_left_comun_5
    2408   00:4F27  D6 02               			sub		2
    2409   00:4F29  CD F6 50            			call	COMUN_X_CUATRO_SPRITES
    2410   00:4F2C                      
    2411   00:4F2C  3A 2E C0            			ld		a,(QUE_SOY)
    2412   00:4F2F  FE 05               			cp		5
    2413   00:4F31  C0                  			ret		nz
    2414   00:4F32  3A DB C0            			ld		a,(SOPLADOR)
    2415   00:4F35  FE 02               			cp		2
    2416   00:4F37  CA 40 4F            			jp		z,.extra_globo_left
    2417   00:4F3A  3A DA C0            			ld		a,(MANIFIESTO)
    2418   00:4F3D  FE 02               			cp		2
    2419   00:4F3F  C0                  			ret		nz
    2420   00:4F40                      
    2421   00:4F40                      .extra_globo_left:
    2422   00:4F40                      
    2423   00:4F40  DD 21 73 C0         			ld		ix,ATRIBUTOS_SPRITES+64
    2424   00:4F44  DD 7E 02            			ld		a,(ix+2)
    2425   00:4F47  D6 02               			sub		2
    2426   00:4F49  CD F6 50            			call	COMUN_X_CUATRO_SPRITES
    2427   00:4F4C  DD 21 83 C0         			ld		ix,ATRIBUTOS_SPRITES+80
    2428   00:4F50  DD 7E 02            			ld		a,(ix+2)
    2429   00:4F53  D6 02               			sub		2
    2430   00:4F55  C3 F6 50            			jp		COMUN_X_CUATRO_SPRITES
    2431   00:4F58                      
    2432   00:4F58                      .left_aspiradora:
    2433   00:4F58                      
    2434   00:4F58  DD 7E 01            			ld		a,(ix+1)
    2435   00:4F5B  E6 DF               			and		11011111b
    2436   00:4F5D  DD 77 01            			ld		(ix+1),a
    2437   00:4F60  DD 7E 05            			ld		a,(ix+5)
    2438   00:4F63  E6 DF               			and		11011111b
    2439   00:4F65  DD 77 05            			ld		(ix+5),a
    2440   00:4F68  DD 7E 09            			ld		a,(ix+9)
    2441   00:4F6B  E6 DF               			and		11011111b
    2442   00:4F6D  DD 77 09            			ld		(ix+9),a
    2443   00:4F70  DD 7E 0D            			ld		a,(ix+13)
    2444   00:4F73  E6 DF               			and		11011111b
    2445   00:4F75  DD 77 0D            			ld		(ix+13),a
    2446   00:4F78                      
    2447   00:4F78  CD B2 4F            			call	.right_left_comun_6
    2448   00:4F7B  D6 02               			sub		2
    2449   00:4F7D  C3 F6 50            			jp		COMUN_X_CUATRO_SPRITES
    2450   00:4F80                      
    2451   00:4F80                      .right_left_comun_1:
    2452   00:4F80                      
    2453   00:4F80  3A 1B C0            			ld		a,(POSE_PROTA)
    2454   00:4F83  3C                  			inc		a
    2455   00:4F84  E6 0B               			and		00000011
    2456   00:4F86  32 1B C0            			ld		(POSE_PROTA),a
    2457   00:4F89  47                  			ld		b,a
    2458   00:4F8A  DD 7E 01            			ld		a,(ix+1)
    2459   00:4F8D  C9                  			ret
    2460   00:4F8E                      
    2461   00:4F8E                      .right_left_comun_2:
    2462   00:4F8E                      
    2463   00:4F8E  CD C0 4F            			call	.suma_pose
    2464   00:4F91  DD 77 01            			ld		(ix+1),a
    2465   00:4F94  DD 7E 05            			ld		a,(ix+5)
    2466   00:4F97  C9                  			ret
    2467   00:4F98                      
    2468   00:4F98                      .right_left_comun_3:
    2469   00:4F98                      
    2470   00:4F98  CD C0 4F            			call	.suma_pose
    2471   00:4F9B  DD 77 05            			ld		(ix+5),a
    2472   00:4F9E  DD 7E 09            			ld		a,(ix+9)
    2473   00:4FA1  C9                  			ret
    2474   00:4FA2                      
    2475   00:4FA2                      .right_left_comun_4:
    2476   00:4FA2                      
    2477   00:4FA2  CD C0 4F            			call	.suma_pose
    2478   00:4FA5  DD 77 09            			ld		(ix+9),a
    2479   00:4FA8  DD 7E 0D            			ld		a,(ix+13)
    2480   00:4FAB  C9                  			ret
    2481   00:4FAC                      
    2482   00:4FAC                      .right_left_comun_5:
    2483   00:4FAC                      
    2484   00:4FAC  CD C0 4F            			call	.suma_pose
    2485   00:4FAF  DD 77 0D            			ld		(ix+13),a
    2486   00:4FB2                      
    2487   00:4FB2                      .right_left_comun_6:
    2488   00:4FB2                      
    2489   00:4FB2  DD 7E 02            			ld		a,(ix+2)
    2490   00:4FB5  C9                  			ret
    2491   00:4FB6                      
    2492   00:4FB6                      .up_down_comun_1:
    2493   00:4FB6                      
    2494   00:4FB6  CD C0 4F            			call	.suma_pose
    2495   00:4FB9  DD 77 0D            			ld		(ix+13),a
    2496   00:4FBC  DD 7E 00            			ld		a,(ix)
    2497   00:4FBF  C9                  			ret
    2498   00:4FC0                      
    2499   00:4FC0                      .suma_pose:
    2500   00:4FC0                      
    2501   00:4FC0  F5                  			push	af
    2502   00:4FC1  78                  			ld		a,b
    2503   00:4FC2  B7                  			or		a
    2504   00:4FC3  C2 CA 4F            			jp		nz,.suma
    2505   00:4FC6                      
    2506   00:4FC6                      .resta:		
    2507   00:4FC6                      
    2508   00:4FC6  F1                  			pop		af
    2509   00:4FC7  D6 06               			sub		6
    2510   00:4FC9  C9                  			ret
    2511   00:4FCA                      
    2512   00:4FCA                      .suma:
    2513   00:4FCA  F1                  			pop		af
    2514   00:4FCB  C6 02               			add		00000010b
    2515   00:4FCD  C9                  			ret
    2516   00:4FCE                      
    2517   00:4FCE                      .up:
    2518   00:4FCE                      
    2519   00:4FCE  3A 2E C0            			ld		a,(QUE_SOY)
    2520   00:4FD1  FE 01               			cp		1
    2521   00:4FD3  C2 DE 4F            			jp		nz,.up_test_1
    2522   00:4FD6  DD 7E 00            			ld		a,(ix)
    2523   00:4FD9  D6 02               			sub		2
    2524   00:4FDB  C3 06 51            			jp		COMUN_Y_CUATRO_SPRITES
    2525   00:4FDE                      
    2526   00:4FDE                      .up_test_1:
    2527   00:4FDE                      
    2528   00:4FDE  2A 12 C1            			ld		hl,(TYLE_POSIC_16)
    2529   00:4FE1  11 20 02            			ld		de,544
    2530   00:4FE4  CD 20 00            			call	DCOMPR
    2531   00:4FE7  DA 08 50            			jp		c,.up_test_2
    2532   00:4FEA  11 60 02            			ld		de,608
    2533   00:4FED  CD 20 00            			call	DCOMPR
    2534   00:4FF0  D2 08 50            			jp		nc,.up_test_2
    2535   00:4FF3                      
    2536   00:4FF3  2A 14 C1            			ld		hl,(TYLE_POSIC_17)
    2537   00:4FF6  11 20 02            			ld		de,544
    2538   00:4FF9  CD 20 00            			call	DCOMPR
    2539   00:4FFC  DA 08 50            			jp		c,.up_test_2
    2540   00:4FFF  11 60 02            			ld		de,608
    2541   00:5002  CD 20 00            			call	DCOMPR
    2542   00:5005  DA 32 50            			jp		c,.seeling
    2543   00:5008                      
    2544   00:5008                      .up_test_2:
    2545   00:5008                      
    2546   00:5008  2A 0E C1            			ld		hl,(TYLE_POSIC_14)
    2547   00:500B  11 20 02            			ld		de,544
    2548   00:500E  CD 20 00            			call	DCOMPR
    2549   00:5011  DA E4 50            			jp		c,.not_up_down
    2550   00:5014  11 60 02            			ld		de,608
    2551   00:5017  CD 20 00            			call	DCOMPR
    2552   00:501A  D2 E4 50            			jp		nc,.not_up_down
    2553   00:501D                      
    2554   00:501D  2A 10 C1            			ld		hl,(TYLE_POSIC_15)
    2555   00:5020  11 20 02            			ld		de,544
    2556   00:5023  CD 20 00            			call	DCOMPR
    2557   00:5026  DA E4 50            			jp		c,.not_up_down
    2558   00:5029  11 60 02            			ld		de,608
    2559   00:502C  CD 20 00            			call	DCOMPR
    2560   00:502F  D2 E4 50            			jp		nc,.not_up_down
    2561   00:5032                      
    2562   00:5032                      .seeling:
    2563   00:5032                      
    2564   00:5032  2A 16 C1            			ld		hl,(TYLE_POSIC_18)
    2565   00:5035  11 60 03            			ld		de,864
    2566   00:5038  CD 20 00            			call	DCOMPR
    2567   00:503B  D2 E4 50            			jp		nc,.not_up_down
    2568   00:503E                      
    2569   00:503E  2A 18 C1            			ld		hl,(TYLE_POSIC_19)
    2570   00:5041  11 60 03            			ld		de,864
    2571   00:5044  CD 20 00            			call	DCOMPR
    2572   00:5047  D2 E4 50            			jp		nc,.not_up_down
    2573   00:504A                      
    2574   00:504A                      .real_up:
    2575   00:504A                      
    2576   00:504A  CD 80 4F            			call	.right_left_comun_1
    2577   00:504D  F6 40               			or		01000000b
    2578   00:504F  E6 DF               			and		11011111b
    2579   00:5051  CD 8E 4F            			call	.right_left_comun_2
    2580   00:5054  F6 40               			or		01000000b
    2581   00:5056  E6 DF               			and		11011111b
    2582   00:5058  CD 98 4F            			call	.right_left_comun_3
    2583   00:505B  F6 40               			or		01000000b
    2584   00:505D  E6 DF               			and		11011111b
    2585   00:505F  CD A2 4F            			call	.right_left_comun_4
    2586   00:5062  F6 40               			or		01000000b
    2587   00:5064  E6 DF               			and		11011111b
    2588   00:5066  CD B6 4F            			call	.up_down_comun_1
    2589   00:5069  D6 02               			sub		2
    2590   00:506B  C3 06 51            			jp		COMUN_Y_CUATRO_SPRITES
    2591   00:506E                      
    2592   00:506E                      
    2593   00:506E                      .down:
    2594   00:506E                      
    2595   00:506E  3A 28 C0            			ld		a,(QUIERE_CUERDA)
    2596   00:5071  FE 02               			cp		2
    2597   00:5073  CA C0 50            			jp		z,.real_down
    2598   00:5076                      
    2599   00:5076  3A 2E C0            			ld		a,(QUE_SOY)
    2600   00:5079  FE 01               			cp		1
    2601   00:507B  C2 96 50            			jp		nz,.down_test_1
    2602   00:507E  DD 7E 00            			ld		a,(ix)
    2603   00:5081  C6 02               			add		2
    2604   00:5083  FE 58               			cp		#58
    2605   00:5085  DA 06 51            			jp		c,COMUN_Y_CUATRO_SPRITES
    2606   00:5088  3A 0C C0            			ld		a,(PANTALLA_ACTUAL)
    2607   00:508B  FE 14               			cp		20
    2608   00:508D  C8                  			ret		z
    2609   00:508E  DD 7E 00            			ld		a,(ix)
    2610   00:5091  C6 02               			add		2
    2611   00:5093  C3 06 51            			jp		COMUN_Y_CUATRO_SPRITES
    2612   00:5096                      
    2613   00:5096                      .down_test_1:
    2614   00:5096                      
    2615   00:5096  2A 12 C1            			ld		hl,(TYLE_POSIC_16)
    2616   00:5099  11 20 02            			ld		de,544
    2617   00:509C  CD 20 00            			call	DCOMPR
    2618   00:509F  DA E4 50            			jp		c,.not_up_down
    2619   00:50A2  11 60 02            			ld		de,608
    2620   00:50A5  CD 20 00            			call	DCOMPR
    2621   00:50A8  D2 E4 50            			jp		nc,.not_up_down
    2622   00:50AB                      
    2623   00:50AB  2A 14 C1            			ld		hl,(TYLE_POSIC_17)
    2624   00:50AE  11 20 02            			ld		de,544
    2625   00:50B1  CD 20 00            			call	DCOMPR
    2626   00:50B4  DA E4 50            			jp		c,.not_up_down
    2627   00:50B7  11 60 02            			ld		de,608
    2628   00:50BA  CD 20 00            			call	DCOMPR
    2629   00:50BD  D2 E4 50            			jp		nc,.not_up_down
    2630   00:50C0                      
    2631   00:50C0                      .real_down:
    2632   00:50C0                      
    2633   00:50C0  CD 80 4F            			call	.right_left_comun_1
    2634   00:50C3  F6 40               			or		01000000b
    2635   00:50C5  E6 DF               			and		11011111b
    2636   00:50C7  CD 8E 4F            			call	.right_left_comun_2
    2637   00:50CA  F6 40               			or		01000000b
    2638   00:50CC  E6 DF               			and		11011111b
    2639   00:50CE  CD 98 4F            			call	.right_left_comun_3
    2640   00:50D1  F6 40               			or		01000000b
    2641   00:50D3  E6 DF               			and		11011111b
    2642   00:50D5  CD A2 4F            			call	.right_left_comun_4
    2643   00:50D8  F6 40               			or		01000000b
    2644   00:50DA  E6 DF               			and		11011111b
    2645   00:50DC  CD B6 4F            			call	.up_down_comun_1
    2646   00:50DF  C6 02               			add		2
    2647   00:50E1  C3 06 51            			jp		COMUN_Y_CUATRO_SPRITES
    2648   00:50E4                      
    2649   00:50E4                      .not_up_down:
    2650   00:50E4                      
    2651   00:50E4  CD 80 4F            			call	.right_left_comun_1
    2652   00:50E7  CD 8E 4F            			call	.right_left_comun_2
    2653   00:50EA  CD 98 4F            			call	.right_left_comun_3
    2654   00:50ED  CD A2 4F            			call	.right_left_comun_4
    2655   00:50F0  CD AC 4F            			call	.right_left_comun_5
    2656   00:50F3  C3 F6 50            			jp		COMUN_X_CUATRO_SPRITES
    2657   00:50F6                      
    2658   00:50F6                      COMUN_X_CUATRO_SPRITES:
    2659   00:50F6                      
    2660   00:50F6  DD 77 02            			ld		(ix+2),a
    2661   00:50F9  DD 77 0A            			ld		(ix+10),a
    2662   00:50FC  C6 10               			add		16
    2663   00:50FE  DD 77 06            			ld		(ix+6),a
    2664   00:5101  DD 77 0E            			ld		(ix+14),a
    2665   00:5104  AF                  			xor		a
    2666   00:5105  C9                  			ret
    2667   00:5106                      
    2668   00:5106                      COMUN_Y_CUATRO_SPRITES:
    2669   00:5106                      
    2670   00:5106  DD 77 00            			ld		(ix),a
    2671   00:5109  DD 77 04            			ld		(ix+4),a
    2672   00:510C  C6 10               			add		16
    2673   00:510E  DD 77 08            			ld		(ix+8),a
    2674   00:5111  DD 77 0C            			ld		(ix+12),a
    2675   00:5114  AF                  			xor		a
    2676   00:5115  C9                  			ret
    2677   00:5116                      
    2678   00:5116                      COMUN_PATRON_CUATRO_SPRITES:
    2679   00:5116                      
    2680   00:5116  DD 77 01            			ld		(ix+1),a
    2681   00:5119  3C                  			inc		a
    2682   00:511A  DD 77 05            			ld		(ix+5),a
    2683   00:511D  C6 0F               			add		15
    2684   00:511F  DD 77 09            			ld		(ix+9),a
    2685   00:5122  3C                  			inc		a
    2686   00:5123  DD 77 0D            			ld		(ix+13),a
    2687   00:5126  C9                  			ret	
    2688   00:5127                      
    2689   00:5127                      COMUN_ATRIBUTOS_CUATRO_SPRITES:
    2690   00:5127                      
    2691   00:5127  DD 77 03            			ld		(ix+3),a
    2692   00:512A  DD 77 07            			ld		(ix+7),a
    2693   00:512D                      
    2694   00:512D                      .solo_dos:
    2695   00:512D                      
    2696   00:512D  DD 77 0B            			ld		(ix+11),a
    2697   00:5130  DD 77 0F            			ld		(ix+15),a
    2698   00:5133  C9                  			ret
    2699   00:5134                      
    2700   00:5134                      PINTA_SPRITES:
    2701   00:5134                      
    2702   00:5134  21 00 FE            			ld		hl,#FE00
    2703   00:5137  1E 03               			ld		e,3
    2704   00:5139  CD F8 53            			call	G9kSetVramWrite
    2705   00:513C                      
    2706   00:513C  DD 21 33 C0         			ld		ix,ATRIBUTOS_SPRITES
    2707   00:5140                      
    2708   00:5140                      .salvamos_xy_por_si_la_cambiamos:
    2709   00:5140                      
    2710   00:5140  DD 7E 00            			ld		a,(ix)
    2711   00:5143  F5                  			push	af
    2712   00:5144  DD 7E 02            			ld		a,(ix+2)
    2713   00:5147  F5                  			push	af
    2714   00:5148                      
    2715   00:5148                      .si_esta_en_globo_cambiamos_x:
    2716   00:5148                      
    2717   00:5148  3A 0C C0            			ld		a,(PANTALLA_ACTUAL)
    2718   00:514B  FE 0F               			cp		15
    2719   00:514D  CA 55 51            			jp		z,.control_de_globo
    2720   00:5150  FE 03               			cp		3
    2721   00:5152  C2 71 51            			jp		nz,.seguimos_segun_lo_planeado
    2722   00:5155                      
    2723   00:5155                      .control_de_globo:
    2724   00:5155                      
    2725   00:5155  3A 2E C0            			ld		a,(QUE_SOY)
    2726   00:5158  FE 05               			cp		5
    2727   00:515A  C2 71 51            			jp		nz,.seguimos_segun_lo_planeado
    2728   00:515D                      
    2729   00:515D  DD 7E 52            			ld		a,(ix+82)
    2730   00:5160  CD F6 50            			call	COMUN_X_CUATRO_SPRITES
    2731   00:5163  DD 7E 50            			ld		a,(ix+80)
    2732   00:5166  CD 06 51            			call	COMUN_Y_CUATRO_SPRITES
    2733   00:5169  AF                  			xor		a
    2734   00:516A  CD 16 51            			call	COMUN_PATRON_CUATRO_SPRITES
    2735   00:516D  AF                  			xor		a
    2736   00:516E  32 1B C0            			ld		(POSE_PROTA),a
    2737   00:5171                      
    2738   00:5171                      .seguimos_segun_lo_planeado:
    2739   00:5171                      
    2740   00:5171  AF                  			xor		a
    2741   00:5172  32 1A C1            			ld		(var_cir_1),a
    2742   00:5175  06 08               			ld		b,8
    2743   00:5177                      
    2744   00:5177                      .bucle_prota:
    2745   00:5177                      
    2746   00:5177  DD 66 01            			ld		h,(ix+1)
    2747   00:517A  DD 6E 00            			ld		l,(ix)
    2748   00:517D                      			
    2749   00:517D  3A 1A C1            			ld		a,(var_cir_1)
    2750   00:5180  B7                  			or		a
    2751   00:5181  C2 89 51            			jp		nz,.bucle_prota_1
    2752   00:5184                      
    2753   00:5184  0E 01               			ld		c,1
    2754   00:5186  7D                  			ld		a,l
    2755   00:5187  91                  			sub		c
    2756   00:5188  6F                  			ld		l,a
    2757   00:5189                      
    2758   00:5189                      .bucle_prota_1:
    2759   00:5189                      
    2760   00:5189  3A 1A C1            			ld		a,(var_cir_1)
    2761   00:518C  3C                  			inc		a
    2762   00:518D  E6 01               			and		00000001b
    2763   00:518F  32 1A C1            			ld		(var_cir_1),a
    2764   00:5192                      
    2765   00:5192  78                  			ld		a,b
    2766   00:5193  E6 01               			and		00000001b
    2767   00:5195  B7                  			or		a
    2768   00:5196  C2 BC 51            			jp		nz,.salvamos_bytes
    2769   00:5199  DD 7E 02            			ld		a,(ix+2)
    2770   00:519C  FE 40               			cp		#40
    2771   00:519E  D2 B4 51            			jp		nc,.detras_de_b
    2772   00:51A1  DD 7E 00            			ld		a,(ix)
    2773   00:51A4  FE 40               			cp		#40
    2774   00:51A6  D2 B4 51            			jp		nc,.detras_de_b
    2775   00:51A9                      
    2776   00:51A9                      .detras_de_a:
    2777   00:51A9                      
    2778   00:51A9  DD 7E 03            			ld		a,(ix+3)
    2779   00:51AC  E6 CF               			and		11001111b
    2780   00:51AE  DD 77 03            			ld		(ix+3),a
    2781   00:51B1  C3 BC 51            			jp		.salvamos_bytes
    2782   00:51B4                      
    2783   00:51B4                      .detras_de_b:
    2784   00:51B4                      
    2785   00:51B4  DD 7E 03            			ld		a,(ix+3)
    2786   00:51B7  F6 20               			or		00100000b
    2787   00:51B9  DD 77 03            			ld		(ix+3),a
    2788   00:51BC                      
    2789   00:51BC                      .salvamos_bytes:
    2790   00:51BC                      
    2791   00:51BC  CD B9 55            			call	OUT_ESCRIBE_UN_BYTE
    2792   00:51BF  11 02 00            			ld		de,2
    2793   00:51C2  DD 19               			add		ix,de
    2794   00:51C4  10 B1               			djnz	.bucle_prota
    2795   00:51C6                      
    2796   00:51C6  DD 21 33 C0         			ld		ix,ATRIBUTOS_SPRITES
    2797   00:51CA                      
    2798   00:51CA  F1                  			pop		af
    2799   00:51CB  CD F6 50            			call	COMUN_X_CUATRO_SPRITES
    2800   00:51CE  F1                  			pop		af
    2801   00:51CF  CD 06 51            			call	COMUN_Y_CUATRO_SPRITES
    2802   00:51D2                      
    2803   00:51D2                      .objeto:
    2804   00:51D2                      
    2805   00:51D2  21 40 FE            			ld		hl,#FE40
    2806   00:51D5  1E 03               			ld		e,3
    2807   00:51D7  CD F8 53            			call	G9kSetVramWrite
    2808   00:51DA                      			
    2809   00:51DA  DD 21 33 C0         			ld		ix,ATRIBUTOS_SPRITES
    2810   00:51DE  11 40 00            			ld		de,64
    2811   00:51E1  DD 19               			add		ix,de
    2812   00:51E3                      
    2813   00:51E3  06 10               			ld		b,16
    2814   00:51E5                      
    2815   00:51E5                      .bucle_objeto:
    2816   00:51E5                      
    2817   00:51E5  DD 66 01            			ld		h,(ix+1)
    2818   00:51E8  DD 6E 00            			ld		l,(ix)
    2819   00:51EB  CD B9 55            			call	OUT_ESCRIBE_UN_BYTE
    2820   00:51EE  11 02 00            			ld		de,2
    2821   00:51F1  DD 19               			add		ix,de
    2822   00:51F3  10 F0               			djnz	.bucle_objeto
    2823   00:51F5                      
    2824   00:51F5  C9                  			ret
    2825   00:51F6                      
    2826   00:51F6                      CARGA_ZONA_SPRITES:
    2827   00:51F6                      		
    2828   00:51F6                      /*
    2829   00:51F6                    ~ 	Direccion inicio a pintar en vram g9(3 bytes)
    2830   00:51F6                    ~ 	bytes verticales (1bytes)
    2831   00:51F6                    ~ 	bytes horizontales(1byte)
    2832   00:51F6                    ~ */
    2833   00:51F6  3A 1E C0            			ld		a,(PERSONAJE) ; Tabla con datos de copia
    2834   00:51F9  C6 10               			add		16
    2835   00:51FB  32 00 70            			ld		[#7000],a
    2836   00:51FE                      
    2837   00:51FE  DD 5E 00            			ld		e,(ix)
    2838   00:5201  DD 6E 01            			ld		l,(ix+1)
    2839   00:5204  DD 66 02            			ld		h,(ix+2)
    2840   00:5207  CD F8 53            			call	G9kSetVramWrite	
    2841   00:520A                      
    2842   00:520A  DD 7E 03            			ld		a,(ix+3)
    2843   00:520D  47                  			ld		b,a
    2844   00:520E                      
    2845   00:520E                      .bucle_exterior:
    2846   00:520E                      
    2847   00:520E  C5                  			push	bc
    2848   00:520F  DD 7E 04            			ld		a,(ix+4)
    2849   00:5212  47                  			ld		b,a
    2850   00:5213                      
    2851   00:5213                      .bucle_interior:
    2852   00:5213                      
    2853   00:5213  C5                  			push	bc
    2854   00:5214  E5                  			push	hl
    2855   00:5215  FD 6E 00            			ld		l,(iy) ; bytes del dibujo
    2856   00:5218  FD 66 01            			ld		h,(iy+1)
    2857   00:521B  CD B9 55            			call	OUT_ESCRIBE_UN_BYTE
    2858   00:521E  E1                  			pop		hl
    2859   00:521F  11 02 00            			ld		de,2
    2860   00:5222  FD 19               			add		iy,de
    2861   00:5224  C1                  			pop		bc
    2862   00:5225  10 EC               			djnz	.bucle_interior
    2863   00:5227  11 80 00            			ld		de,128
    2864   00:522A  B7                  			or		a
    2865   00:522B  ED 5A               			adc		hl,de
    2866   00:522D  DD 5E 00            			ld		e,(ix)
    2867   00:5230  CD F8 53            			call	G9kSetVramWrite	
    2868   00:5233                      
    2869   00:5233                      
    2870   00:5233                      
    2871   00:5233  C1                  			pop		bc
    2872   00:5234  10 D8               			djnz	.bucle_exterior
    2873   00:5236                      
    2874   00:5236  3E 03               			ld		a,3
    2875   00:5238  32 00 70            			ld		[#7000],a
    2876   00:523B                      
    2877   00:523B  C9                  			ret
    2878   00:523C                      
    2879   00:523C                      TABLA_PEGA_1_POSE_2_DIREC:
    2880   00:523C                      
    2881   00:523C  01 00 00 40 08      			db		#01,#00,#00,64,8 		; donde pintar 3, dp h, dp l, cant lineas horiz, cant lineas vertic
    2882   00:5241                      
    2883   00:5241                      TABLA_PEGA_1_POSE_1_DIREC:
    2884   00:5241                      
    2885   00:5241  01 00 00 20 08      			db		#01,#00,#00,32,8 		; donde pintar 3, dp h, dp l, cant lineas horiz, cant lineas vertic
    2886   00:5246                      
    2887   00:5246                      TABLA_PEGA_4_POSE_2_DIREC:
    2888   00:5246                      
    2889   00:5246  01 00 00 40 20      			db		#01,#00,#00,64,32 		; donde pintar 3, dp h, dp l, cant lineas horiz, cant lineas vertic
    2890   00:524B                      
    2891   00:524B                      TABLA_PEGA_4_POSE_1_DIREC:
    2892   00:524B                      
    2893   00:524B  01 00 00 20 20      			db		#01,#00,#00,32,32 		; donde pintar 3, dp h, dp l, cant lineas horiz, cant lineas vertic
    2894   00:5250                      
    2895   00:5250                      RUTINA_RETRASO:
    2896   00:5250                      
    2897   00:5250  D5                  			push	de
    2898   00:5251  11 01 00            			ld		de,1
    2899   00:5254  B7                  			or		a
    2900   00:5255  ED 52               			sbc		hl,de
    2901   00:5257  7C                  			ld		a,h
    2902   00:5258  B5                  			or		l
    2903   00:5259  B7                  			or		a
    2904   00:525A  D1                  			pop		de
    2905   00:525B  C8                  			ret		z
    2906   00:525C  C3 50 52            			jp		RUTINA_RETRASO
    2907   00:525F                      
    2908   00:525F                      			include	"TABLAS/TABLAS SOBRE SALTO.asm"
       1.  00:525F                      DATOS_PASO_1_SALTO:
       2.  00:525F                      
       3.  00:525F                      			db		00001000b,11111000b,00001001b,11111001b,00001000b,11111000b,00001001b,11111001b,0,3,0
       3.  00:525F  08 F8 09 F9 08 F8 09 F9 00 03 00 
       4.  00:526A                      
       5.  00:526A                      DATOS_PASO_2_SALTO:
       6.  00:526A                      
       7.  00:526A                      			db		00001010b,11111010b,00001011b,11111011b,00001010b,11111010b,00001011b,11111011b,0,2,0
       7.  00:526A  0A FA 0B FB 0A FA 0B FB 00 02 00 
       8.  00:5275                      
       9.  00:5275                      DATOS_PASO_3_SALTO:
      10.  00:5275                      
      11.  00:5275                      			db		00000000b,11111111b,00000000b,11111111b,00000000b,11111111b,00000000b,11111111b,0,1,0
      11.  00:5275  00 FF 00 FF 00 FF 00 FF 00 01 00 
      12.  00:5280                      
      13.  00:5280                      DATOS_PASO_4_SALTO:
      14.  00:5280                      
      15.  00:5280                      			db		00001100b,11111100b,00001101b,11111101b,00001100b,11111100b,00001101b,11111101b,0,0,0
      15.  00:5280  0C FC 0D FD 0C FC 0D FD 00 00 00 
      16.  00:528B                      
      17.  00:528B                      DATOS_PASO_5_SALTO:
      18.  00:528B                      
      19.  00:528B                      			db		00001110b,11111110b,00001111b,11111111b,00001110b,11111110b,00001111b,11111111b,1,1,0
      19.  00:528B  0E FE 0F FF 0E FE 0F FF 01 01 00 
      20.  00:5296                      
      21.  00:5296                      DATOS_PASO_6_SALTO:
      22.  00:5296                      
      23.  00:5296                      			db		00000000b,11111111b,00000000b,11111111b,00000000b,11111111b,00000000b,11111111b,1,2,0
      23.  00:5296  00 FF 00 FF 00 FF 00 FF 01 02 00 
      24.  00:52A1                      
      25.  00:52A1                      DATOS_PASO_7_SALTO:
      26.  00:52A1                      
      27.  00:52A1                      			db		00000000b,11111111b,00000000b,11111111b,00000000b,11111111b,00000000b,11111111b,1,3,0
      27.  00:52A1  00 FF 00 FF 00 FF 00 FF 01 03 00 
      28.  00:52AC                      
      29.  00:52AC                      DATOS_PASO_8_SALTO:
      30.  00:52AC                      
      31.  00:52AC                      			db		00000100b,11110101b,00000101b,11110101b,00000100b,11110101b,00000101b,11110101b,1,3,1
      31.  00:52AC  04 F5 05 F5 04 F5 05 F5 01 03 01 
      32.  00:52B7                      
      33.  00:52B7                      DATOS_PASO_9_SALTO:
      34.  00:52B7                      
      35.  00:52B7                      			db		00000100b,11110101b,00000101b,11110101b,00000100b,11110101b,00000101b,11110101b,1,0,1
      35.  00:52B7  04 F5 05 F5 04 F5 05 F5 01 00 01 
      36.  00:52C2                      
      37.  00:52C2                      RELACION_POSICION_DEL_SALTO:
      38.  00:52C2                      
      39.  00:52C2  A6 4D               			dw		STICK.paso_1
      40.  00:52C4  A6 4D               			dw		STICK.paso_1
      41.  00:52C6  A6 4D               			dw		STICK.paso_1
      42.  00:52C8  AD 4D               			dw		STICK.paso_2
      43.  00:52CA  AD 4D               			dw		STICK.paso_2
      44.  00:52CC  AD 4D               			dw		STICK.paso_2
      45.  00:52CE  B4 4D               			dw		STICK.paso_3
      46.  00:52D0  BB 4D               			dw		STICK.paso_4
      47.  00:52D2  C2 4D               			dw		STICK.paso_5
      48.  00:52D4  C9 4D               			dw		STICK.paso_6
      49.  00:52D6  C9 4D               			dw		STICK.paso_6
      50.  00:52D8  C9 4D               			dw		STICK.paso_6
      51.  00:52DA  D0 4D               			dw		STICK.paso_7
      52.  00:52DC  D0 4D               			dw		STICK.paso_7
      53.  00:52DE  D7 4D               			dw		STICK.paso_8
      54.  00:52E0  DE 4D               			dw		STICK.paso_9
    2909   00:52E2                      
    2910   00:52E2                      VALORES_INICIALES_ATRIBUTOS_SPRITES:
    2911   00:52E2                      
    2912   00:52E2                      			include	"TABLAS/TABLA VAL INI ATRIB SPRITES.asm"
       1.  00:52E2  58 00 5A 10         				db		32*3-8,0,90,00010000b
       2.  00:52E6  58 01 6A 10         				db		32*3-8,1,106,00010000b
       3.  00:52EA  68 10 5A 10         				db		32*3+16-8,#10,90,00010000b
       4.  00:52EE  68 11 6A 10         				db		32*3+16-8,#11,106,00010000b
    2913   00:52F2                      
    2914   00:52F2                      DATA_COLOR_EXPLO:
    2915   00:52F2                      
    2916   00:52F2                      			include "PALETAS/SPRITES EXPLORADOR.PAL9G"
       1.  00:52F2                          db    0,0,0,4,4,4,13,2,3,1,7,2,16,7,8,2,12,4,21,10,6,27,13,7,21,20,4,7,23,27,31,31,31,0,31,2,31,31,4,31,0,0,16,6,4,14,14,15
       1.  00:52F2  00 00 00 04 04 04 0D 02 03 01 07 02 10 07 08 02 
       1.  00:5302  0C 04 15 0A 06 1B 0D 07 15 14 04 07 17 1B 1F 1F 
       1.  00:5312  1F 00 1F 02 1F 1F 04 1F 00 00 10 06 04 0E 0E 0F 
    2917   00:5322                      
    2918   00:5322                      DATA_COLOR_TILES:
    2919   00:5322                      
    2920   00:5322                      			include	"PALETAS/MINI TILES GLOBAL.PAL9G"
       1.  00:5322                          db    0,0,0,13,2,3,20,3,3,30,0,30,8,10,10,5,18,21,0,23,0,29,14,2,19,19,16,4,25,13,27,17,27,8,24,27,23,23,15,24,24,3,24,23,23,31,31,31
       1.  00:5322  00 00 00 0D 02 03 14 03 03 1E 00 1E 08 0A 0A 05 
       1.  00:5332  12 15 00 17 00 1D 0E 02 13 13 10 04 19 0D 1B 11 
       1.  00:5342  1B 08 18 1B 17 17 0F 18 18 03 18 17 17 1F 1F 1F 
    2921   00:5352                      
    2922   00:5352                      DATA_COLOR_MARCADOR:
    2923   00:5352                      
    2924   00:5352                      			include "PALETAS/MARCADOR ALTO.PAL9G"
       1.  00:5352                          db    0,0,0,13,2,3,20,3,3,7,9,9,0,0,0,26,8,22,5,18,21,0,23,0,29,14,2,19,19,16,4,25,13,8,26,31,23,23,15,24,23,23,26,26,4,31,31,31
       1.  00:5352  00 00 00 0D 02 03 14 03 03 07 09 09 00 00 00 1A 
       1.  00:5362  08 16 05 12 15 00 17 00 1D 0E 02 13 13 10 04 19 
       1.  00:5372  0D 08 1A 1F 17 17 0F 18 17 17 1A 1A 04 1F 1F 1F 
    2925   00:5382                      
    2926   00:5382                      CAMBIA_PAGINA_2:
    2927   00:5382                      
    2928   00:5382  32 01 C0            			ld		(PAGINA_A_LA_QUE_VOLVER),a
    2929   00:5385  32 00 70            			ld		[#7000],a
    2930   00:5388                      				
    2931   00:5388  C9                  			ret
    2932   00:5389                      
    2933   00:5389                      GFX9990_NO_DETECTADA:
    2934   00:5389                      		
    2935   00:5389  01 1F 00            			ld		bc,31
    2936   00:538C  11 7B 00            			ld		de,123
    2937   00:538F  21 A3 53            			ld		hl,TEXTO_NO_HAY_GFX9000
    2938   00:5392  CD 5C 00            			call	LDIRVM
    2939   00:5395                      
    2940   00:5395  18 FE               			jr		$														
    2941   00:5397                      
    2942   00:5397                      GFX9990_DETECTADA:
    2943   00:5397                      
    2944   00:5397  01 1F 00            			ld		bc,31
    2945   00:539A  11 7B 00            			ld		de,123
    2946   00:539D  21 C2 53            			ld		hl,TEXTO_SI_HAY_GFX9000
    2947   00:53A0  C3 5C 00            			jp		LDIRVM
    2948   00:53A3                      		
    2949   00:53A3                      TEXTO_NO_HAY_GFX9000:
    2950   00:53A3                      
    2951   00:53A3                      			db		"GFX9000/Powergraph no detectada"				;31				
    2951   00:53A3  47 46 58 39 30 30 30 2F 50 6F 77 65 72 67 72 61 
    2951   00:53B3  70 68 20 6E 6F 20 64 65 74 65 63 74 61 64 61 
    2952   00:53C2                      
    2953   00:53C2                      TEXTO_SI_HAY_GFX9000:
    2954   00:53C2                      
    2955   00:53C2                      			db		"Esto  sigue  GFX9000/Powergraph"				;31				
    2955   00:53C2  45 73 74 6F 20 20 73 69 67 75 65 20 20 47 46 58 
    2955   00:53D2  39 30 30 30 2F 50 6F 77 65 72 67 72 61 70 68 
    2956   00:53E1                      
    2957   00:53E1                      			include	"RECURSOS BASICOS/RUTINAS 9990.asm"
       1.  00:53E1                      G9kDetecta:
       2.  00:53E1                      
       3.  00:53E1                      ; Función  :    Detecta si hay conectada una V9990
       4.  00:53E1                      ; Input    :    nada
       5.  00:53E1                      ; Output   :    Z = detectada , NZ = no detectada
       6.  00:53E1                      ; Modifica :  	A,C,E,H,L,F
       7.  00:53E1                      ; Notas    :    Funciona aunque te la puedes ahorrar
       8.  00:53E1                      
       9.  00:53E1  1E 00                        ld     E,0
      10.  00:53E3  63                           ld	  	H,E
      11.  00:53E4  6B                           ld     L,E
      12.  00:53E5  CD F8 53                     call   G9kSetVramWrite
      13.  00:53E8  3E A2                        ld     A,0A2h
      14.  00:53EA  D3 60                        out    (G9K_VRAM),A
      15.  00:53EC  1E 00                        ld     E,0
      16.  00:53EE  63                           ld	  	H,E
      17.  00:53EF  6B                           ld     L,E
      18.  00:53F0  CD 09 54                     call   G9kSetVramRead
      19.  00:53F3  DB 60                        in     A,(G9K_VRAM)
      20.  00:53F5  FE A2                        cp     A,0A2h
      21.  00:53F7                               
      22.  00:53F7  C9                           ret
      23.  00:53F8                                        	
      24.  00:53F8                      G9kSetVramWrite:
      25.  00:53F8                      
      26.  00:53F8                      ; Función  :    Establece la dirección de escritura en Vram
      27.  00:53F8                      ; Input    : 	E:HL VRAM address
      28.  00:53F8                      ; Output   : 	nada
      29.  00:53F8                      ; Modifica : 	Nada
      30.  00:53F8                      
      31.  00:53F8  F5                  		  PUSH	AF
      32.  00:53F9  C5                  		  PUSH	BC
      33.  00:53FA  3E 00                         ld    A,G9K_WRITE_ADDR
      34.  00:53FC  D3 64                         out   (G9K_REG_SELECT),A
      35.  00:53FE  0E 63                         ld    C,G9K_REG_DATA
      36.  00:5400  ED 69                         out   (C),L
      37.  00:5402  ED 61                         out   (C),H
      38.  00:5404  ED 59                         out   (C),E
      39.  00:5406  C1                            POP	BC
      40.  00:5407  F1                            POP	AF
      41.  00:5408  C9                            ret
      42.  00:5409                      
      43.  00:5409                      G9kSetVramRead:
      44.  00:5409                      
      45.  00:5409                      ; Función  :   	Establecer la dirección de lectura de Vram
      46.  00:5409                      ; Input    : 	E:HL VRAM address
      47.  00:5409                      ; Output   : 	nada
      48.  00:5409                      ; Modifica : 	A,C
      49.  00:5409                      
      50.  00:5409  3E 03                          ld   A,G9K_READ_ADDR
      51.  00:540B  D3 64                          out  (G9K_REG_SELECT),A
      52.  00:540D  0E 63                          ld   C,G9K_REG_DATA
      53.  00:540F  ED 69                          out  (C),L
      54.  00:5411  ED 61                          out  (C),H
      55.  00:5413  ED 59                          out  (C),E
      56.  00:5415                                 
      57.  00:5415  C9                             ret
      58.  00:5416                      
      59.  00:5416                      G9kReset:
      60.  00:5416                       
      61.  00:5416                      ; Función  :    Resetea la v9990, limpia la Paleta, apaga los sprites, detiene cualquier operación actual de blit, coloca V9990 en la correcta configuración de RAM y desactiva la pantalla
      62.  00:5416                      ; Input    :    Nada
      63.  00:5416                      ; Output   :    Nada
      64.  00:5416                      ; Modifica : 	A,B
      65.  00:5416                      ; Notas    :    No cambia los ajustes actuales
      66.  00:5416                      
      67.  00:5416                                G9kReadReg G9K_DISPLAY_ADJUST + G9K_DIS_INC_READ
      67.  00:5416                    > 
      67.  00:5416                    > 
      67.  00:5416                    > 
      67.  00:5416                    > 
      67.  00:5416  3E 50             >   LD  A,register
      67.  00:5418  D3 64             >   OUT  (G9K_REG_SELECT),A
      67.  00:541A  DB 63             >   IN  A,(G9K_REG_DATA)
      67.  00:541C                    >   
      68.  00:541C                                
      69.  00:541C  F5                            push  AF      												; Guardamos valor de ajuste
      70.  00:541D                      
      71.  00:541D                                ; Establecemos el estado de reset
      72.  00:541D                       
      73.  00:541D  3E 02                         ld    A,G9K_SYS_CTRL_SRS
      74.  00:541F  D3 67                         out   (G9K_SYS_CTRL),A
      75.  00:5421                      
      76.  00:5421                      		  ; Limpiamos el estado de reset
      77.  00:5421                       
      78.  00:5421  AF                            xor   A,A
      79.  00:5422  D3 67                         out   (G9K_SYS_CTRL),A
      80.  00:5424                      
      81.  00:5424  F1                            pop   AF
      82.  00:5425  D3 63                         out   (G9K_REG_DATA),A        								; Restauramos el valor de ajuste
      83.  00:5427                      
      84.  00:5427                                G9kWriteReg G9K_OPCODE,G9K_OPCODE_STOP
      84.  00:5427                    > 
      84.  00:5427                    > 
      84.  00:5427                    > 
      84.  00:5427                    > 
      84.  00:5427  3E 34             >   LD  A,register
      84.  00:5429  D3 64             >   OUT  (G9K_REG_SELECT),A
      84.  00:542B  3E 00             >   LD  A,data
      84.  00:542D  D3 63             >   OUT  (G9K_REG_DATA),A
      84.  00:542F                    >   
      85.  00:542F                                G9kWriteReg G9K_CTRL,G9K_CTRL_DIS_SPD+G9K_CTRL_VRAM512
      85.  00:542F                    > 
      85.  00:542F                    > 
      85.  00:542F                    > 
      85.  00:542F                    > 
      85.  00:542F  3E 08             >   LD  A,register
      85.  00:5431  D3 64             >   OUT  (G9K_REG_SELECT),A
      85.  00:5433  3E 42             >   LD  A,data
      85.  00:5435  D3 63             >   OUT  (G9K_REG_DATA),A
      85.  00:5437                    >   
      86.  00:5437                      
      87.  00:5437                                ; Clear current palette
      88.  00:5437                       
      89.  00:5437                                G9kWriteReg G9K_PALETTE_PTR,0      		 					; A se convierte en 0
      89.  00:5437                    > 
      89.  00:5437                    > 
      89.  00:5437                    > 
      89.  00:5437                    > 
      89.  00:5437  3E 0E             >   LD  A,register
      89.  00:5439  D3 64             >   OUT  (G9K_REG_SELECT),A
      89.  00:543B  3E 00             >   LD  A,data
      89.  00:543D  D3 63             >   OUT  (G9K_REG_DATA),A
      89.  00:543F                    >   
      90.  00:543F                                
      91.  00:543F  06 C0                         ld    B,64 * 3
      92.  00:5441  D3 61                         out   (G9K_PALETTE),A
      93.  00:5443  10 FC                         djnz  $-2
      94.  00:5445  D3 6F                         out 	(G9K_OUTPUT_CTRL),A    	   								; Establecemos la salida de GFX9000
      95.  00:5447                                
      96.  00:5447  C9                            ret
      97.  00:5448                      
      98.  00:5448                      G9kSetScreenMode:
      99.  00:5448                      
     100.  00:5448                      ; A = Modo
     101.  00:5448                      ; B = Bit por pixel
     102.  00:5448                      ; C = Tamaño de la imagen
     103.  00:5448                      ; D = Interlazado
     104.  00:5448                      ; E = Registro del control de paleta
     105.  00:5448                      
     106.  00:5448  6F                            ld    L,A
     107.  00:5449  87                            add   A,A
     108.  00:544A  85                            add   A,L     ; A  = A * 3
     109.  00:544B  21 9F 54                      ld    HL,G9K_MODE_TABLE
     110.  00:544E                       
     111.  00:544E                                ADD_HL_A
     111.  00:544E  85                >   add  a,l
     111.  00:544F  6F                >   ld  l,a
     111.  00:5450  30 01             >   jr  nc,1f
     111.  00:5452  24                >   inc  h
     111.  00:5453                    > 1
     112.  00:5453                       
     113.  00:5453  3E 06                         ld    A,G9K_SCREEN_MODE0
     114.  00:5455  D3 64                         out   (G9K_REG_SELECT),A
     115.  00:5457  7E                            ld    A,(HL)  ; Get fixed settings for mode reg 6
     116.  00:5458  23                            inc   HL
     117.  00:5459  B0                            or    A,B     ; Set bits per dot
     118.  00:545A  B1                            or    A,C     ; Set image size
     119.  00:545B  D3 63                         out   (G9K_REG_DATA),A
     120.  00:545D  7E                            ld    A,(HL)  ; Get fixed settings for mode reg 7
     121.  00:545E  23                            inc   HL
     122.  00:545F  15                            dec   D
     123.  00:5460  14                            inc   D       ; Is d 0?
     124.  00:5461  28 02                         jr    Z,$+4
     125.  00:5463  F6 06                         or    A,G9K_SCR1_EO+G9K_SCR1_IL
     126.  00:5465  D3 63                         out   (G9K_REG_DATA),A
     127.  00:5467  7E                            ld    A,(HL)
     128.  00:5468  D3 67                         out   (G9K_SYS_CTRL),A
     129.  00:546A                      
     130.  00:546A                                G9kWriteReg G9K_PALETTE_CTRL,e
     130.  00:546A                    > 
     130.  00:546A                    > 
     130.  00:546A                    > 
     130.  00:546A                    > 
     130.  00:546A  3E 0D             >   LD  A,register
     130.  00:546C  D3 64             >   OUT  (G9K_REG_SELECT),A
     130.  00:546E  7B                >   LD  A,data
     130.  00:546F  D3 63             >   OUT  (G9K_REG_DATA),A
     130.  00:5471                    >   
     131.  00:5471                                 
     132.  00:5471  C9                            ret
     133.  00:5472                      
     134.  00:5472                      G9kSetCmdWriteMask:
     135.  00:5472                      
     136.  00:5472                      ; HL = Valor de máscara
     137.  00:5472                      
     138.  00:5472                      		  G9kWriteReg G9K_WRITE_MASK,L
     138.  00:5472                    > 
     138.  00:5472                    > 
     138.  00:5472                    > 
     138.  00:5472                    > 
     138.  00:5472  3E 2E             >   LD  A,register
     138.  00:5474  D3 64             >   OUT  (G9K_REG_SELECT),A
     138.  00:5476  7D                >   LD  A,data
     138.  00:5477  D3 63             >   OUT  (G9K_REG_DATA),A
     138.  00:5479                    >   
     139.  00:5479                      		   
     140.  00:5479  7C                  		  ld    A,H
     141.  00:547A  D3 63               		  out   (G9K_REG_DATA),A
     142.  00:547C                      		
     143.  00:547C  C9                  		  ret
     144.  00:547D                      		            
     145.  00:547D                      setup_graphic_mode_and_blitter:
     146.  00:547D                      
     147.  00:547D  3E 00               		  ld    A,G9K_MODE_P1
     148.  00:547F  01 00 01            		  ld    BC,G9K_SCR0_4BIT*256 + G9K_SCR0_XIM256
     149.  00:5482  16 00                 		  ld    D,0														; no interlazado (en el modo P1 no tiene sentido)
     150.  00:5484  1E 06               		  ld	e,000000110b                           					; Situa la paleta para la página B en la segunda paleta
     151.  00:5486                      																		; los bits 3-2 seleccionan la paleta del plano B (de 4), los bits 1-0 seleccionan la paleta del plano A (de los 4)
     152.  00:5486  CD 48 54            		  call  G9kSetScreenMode	
     153.  00:5489                      
     154.  00:5489                      		  ; Establece la configuración blitter por defecto
     155.  00:5489                      		  
     156.  00:5489                      		  G9kWriteReg G9K_ARG,0
     156.  00:5489                    > 
     156.  00:5489                    > 
     156.  00:5489                    > 
     156.  00:5489                    > 
     156.  00:5489  3E 2C             >   LD  A,register
     156.  00:548B  D3 64             >   OUT  (G9K_REG_SELECT),A
     156.  00:548D  3E 00             >   LD  A,data
     156.  00:548F  D3 63             >   OUT  (G9K_REG_DATA),A
     156.  00:5491                    >   
     157.  00:5491                      		  G9kWriteReg G9K_LOP, G9K_LOP_WCSC 							; copia tal cual es
     157.  00:5491                    > 
     157.  00:5491                    > 
     157.  00:5491                    > 
     157.  00:5491                    > 
     157.  00:5491  3E 2D             >   LD  A,register
     157.  00:5493  D3 64             >   OUT  (G9K_REG_SELECT),A
     157.  00:5495  3E 0C             >   LD  A,data
     157.  00:5497  D3 63             >   OUT  (G9K_REG_DATA),A
     157.  00:5499                    >   
     158.  00:5499                      		  
     159.  00:5499  21 FF 00            		  LD    HL,#00FF												; #FFFF
     160.  00:549C  C3 72 54            		  jp	G9kSetCmdWriteMask
     161.  00:549F                      
     162.  00:549F                      G9K_MODE_TABLE:
     163.  00:549F                      
     164.  00:549F                                ; Pattern mode 1      (P1)
     165.  00:549F                                
     166.  00:549F  00                            db    G9K_SCR0_P1+G9K_SCR0_DTCLK4
     167.  00:54A0  00                            db    0
     168.  00:54A1  00                            db    G9K_SYS_CTRL_XTAL
     169.  00:54A2                                
     170.  00:54A2                                ; Pattern mode 2      (P2)
     171.  00:54A2                                
     172.  00:54A2  40                            db    G9K_SCR0_P2+G9K_SCR0_DTCLK4
     173.  00:54A3  00                            db    0
     174.  00:54A4  00                            db    G9K_SYS_CTRL_XTAL
     175.  00:54A5                                
     176.  00:54A5                                ; Bitmap 256 * 212    (B1)
     177.  00:54A5                                
     178.  00:54A5  80                            db    G9K_SCR0_BITMAP+G9K_SCR0_DTCLK4
     179.  00:54A6  00                            db    0
     180.  00:54A7  00                            db    G9K_SYS_CTRL_XTAL
     181.  00:54A8                                
     182.  00:54A8                                ; Bitmap 384 * 240    (B2)
     183.  00:54A8                                
     184.  00:54A8  90                            db    G9K_SCR0_BITMAP+G9K_SCR0_DTCLK2
     185.  00:54A9  00                            db    0
     186.  00:54AA  01                            db    G9K_SYS_CTRL_MCKIN
     187.  00:54AB                                
     188.  00:54AB                                ; Bitmap 512 * 212    (B3)
     189.  00:54AB                                
     190.  00:54AB  90                            db    G9K_SCR0_BITMAP+G9K_SCR0_DTCLK2
     191.  00:54AC  00                            db    0
     192.  00:54AD  00                            db    G9K_SYS_CTRL_XTAL
     193.  00:54AE                                
     194.  00:54AE                                ; Bitmap 768 * 212    (B4)
     195.  00:54AE                                
     196.  00:54AE  A0                            db    G9K_SCR0_BITMAP+G9K_SCR0_DTCLK
     197.  00:54AF  00                            db    0
     198.  00:54B0  01                            db    G9K_SYS_CTRL_MCKIN
     199.  00:54B1                                
     200.  00:54B1                                ; Bitmap 640 * 400    (B5)
     201.  00:54B1                                
     202.  00:54B1  A0                            db    G9K_SCR0_BITMAP+G9K_SCR0_DTCLK
     203.  00:54B2  01                            db    G9K_SCR1_HSCN
     204.  00:54B3  00                            db    G9K_SYS_CTRL_XTAL
     205.  00:54B4                                
     206.  00:54B4                                ; Bitmap 640 * 480    (B6)
     207.  00:54B4                                
     208.  00:54B4  A0                            db    G9K_SCR0_BITMAP+G9K_SCR0_DTCLK
     209.  00:54B5  41                            db    G9K_SCR1_HSCN+G9K_SCR1_C25M
     210.  00:54B6  00                            db    G9K_SYS_CTRL_XTAL
     211.  00:54B7                                
     212.  00:54B7                                ; Bitmap 1024 * 212   (B7) (modo no documentado)
     213.  00:54B7                                
     214.  00:54B7  A0                            db    G9K_SCR0_BITMAP+G9K_SCR0_DTCLK
     215.  00:54B8  00                            db    0
     216.  00:54B9  00                            db    G9K_SYS_CTRL_XTAL
     217.  00:54BA                      
     218.  00:54BA                      G9kSpritesEnable:
     219.  00:54BA                      
     220.  00:54BA                      ; Función  :	Conectar los sprites de la V9990
     221.  00:54BA                      ; Input    :    nada
     222.  00:54BA                      ; Output   :    nada
     223.  00:54BA                      ; Modifica :	A
     224.  00:54BA                      
     225.  00:54BA                               G9kReadReg G9K_CTRL+G9K_DIS_INC_READ
     225.  00:54BA                    > 
     225.  00:54BA                    > 
     225.  00:54BA                    > 
     225.  00:54BA                    > 
     225.  00:54BA  3E 48             >   LD  A,register
     225.  00:54BC  D3 64             >   OUT  (G9K_REG_SELECT),A
     225.  00:54BE  DB 63             >   IN  A,(G9K_REG_DATA)
     225.  00:54C0                    >   
     226.  00:54C0                               
     227.  00:54C0  E6 BF                        and    A,255-G9K_CTRL_DIS_SPD
     228.  00:54C2  D3 63                        out    (G9K_REG_DATA),A
     229.  00:54C4                               
     230.  00:54C4  C9                           ret
     231.  00:54C5                      
     232.  00:54C5                      clean_pattern_model_table:												; limpia desde #00000 a #3FE00-1 y de #40000 a #7c000
     233.  00:54C5                      
     234.  00:54C5  1E 00               		ld		e,#0													; plano A
     235.  00:54C7  21 00 00            		ld		hl,#0000												; desde #e000 hasta #f000
     236.  00:54CA  CD F8 53            		call	G9kSetVramWrite	
     237.  00:54CD                      			
     238.  00:54CD  CD F2 54            		call	clean_3_times		
     239.  00:54D0                      		
     240.  00:54D0  11 FF FD            		ld		de,#fe00-1												; desde #30000 hasta #3fe00-1
     241.  00:54D3                      	
     242.  00:54D3                      .loop_1:
     243.  00:54D3                      
     244.  00:54D3  AF                  		xor		a
     245.  00:54D4  ED 79               		out		[c],a
     246.  00:54D6  13                  		inc		de
     247.  00:54D7                      		
     248.  00:54D7  7A                  		ld		a,d
     249.  00:54D8  B3                  		or		e
     250.  00:54D9  20 F8               		jr		nz,.loop_1
     251.  00:54DB                      	
     252.  00:54DB  1E 04               		ld		e,#4													; plano B
     253.  00:54DD  21 00 00            		ld		hl,#0000												; desde #e000 hasta #f000
     254.  00:54E0  CD F8 53            		call	G9kSetVramWrite	
     255.  00:54E3                      
     256.  00:54E3  CD F2 54            		call	clean_3_times
     257.  00:54E6                      
     258.  00:54E6  11 FF BF            		ld		de,#c000-1												; desde #30000 hasta #7c000-1
     259.  00:54E9                      
     260.  00:54E9                      .loop_2:
     261.  00:54E9                      
     262.  00:54E9  AF                  		xor		a
     263.  00:54EA  ED 79               		out		[c],a
     264.  00:54EC  13                  		inc		de
     265.  00:54ED                      		
     266.  00:54ED  7A                  		ld		a,d
     267.  00:54EE  B3                  		or		e
     268.  00:54EF  20 F8               		jr		nz,.loop_2
     269.  00:54F1                      		
     270.  00:54F1  C9                  		ret
     271.  00:54F2                      
     272.  00:54F2                      clean_3_times:
     273.  00:54F2                      	
     274.  00:54F2  AF                  		xor		a
     275.  00:54F3  0E 60               		ld		c,G9K_VRAM
     276.  00:54F5  06 03               		ld		b,3
     277.  00:54F7                      	
     278.  00:54F7                      .loop_2:
     279.  00:54F7                      
     280.  00:54F7  C5                  		push	bc
     281.  00:54F8  11 00 00            		ld		de,#0000
     282.  00:54FB                      	
     283.  00:54FB                      .loop:	
     284.  00:54FB                      
     285.  00:54FB  AF                  		xor		a
     286.  00:54FC  ED 79               		out		[c],a
     287.  00:54FE  13                  		inc		de
     288.  00:54FF                      		
     289.  00:54FF  7A                  		ld		a,d
     290.  00:5500  B3                  		or		e
     291.  00:5501  20 F8               		jr		nz,.loop
     292.  00:5503                      
     293.  00:5503  C1                  		pop		bc
     294.  00:5504  10 F1               		djnz	.loop_2
     295.  00:5506                      		
     296.  00:5506  C9                  		ret         
     297.  00:5507                      
     298.  00:5507                      setup_nametable:
     299.  00:5507                      
     300.  00:5507                      		  																; llena los atributos del plano A
     301.  00:5507                      
     302.  00:5507  21 00 00            		ld		hl,0
     303.  00:550A  22 08 E0            		ld		[vram_first_pattern_name],hl
     304.  00:550D  CD 49 55            		call	setup_nametable_Aplane
     305.  00:5510                      
     306.  00:5510  1E 07               		ld		e,#7													; llena los atributos del plano B
     307.  00:5512  21 00 E0            		ld		hl,#e000												; desde #e000 hasta #f000
     308.  00:5515  CD F8 53            		CALL	G9kSetVramWrite	
     309.  00:5518  E5                  		push	hl														; (**)
     310.  00:5519                      		
     311.  00:5519  06 20               		ld		b,32
     312.  00:551B                      		
     313.  00:551B  21 00 00            		ld		hl,#000	
     314.  00:551E  0E 60               		LD		C,G9K_VRAM	
     315.  00:5520                      			
     316.  00:5520                      .loop_b:
     317.  00:5520                      
     318.  00:5520  7D                  		ld		a,l
     319.  00:5521  ED 79               		out		[c],a
     320.  00:5523  7C                  		ld		a,h
     321.  00:5524  ED 79               		out		[c],a
     322.  00:5526  23                  		inc		hl
     323.  00:5527                      		
     324.  00:5527  10 F7               		djnz	.loop_b
     325.  00:5529                      		
     326.  00:5529  D1                  		pop		de
     327.  00:552A  E5                  		push	hl														; contador actual (*)
     328.  00:552B  21 80 00            		ld		hl,128													; 32*2
     329.  00:552E                      		
     330.  00:552E  19                  		add		hl,de				
     331.  00:552F  1E 07               		ld		e,#7		
     332.  00:5531  CD F8 53            		CALL	G9kSetVramWrite	
     333.  00:5534                      
     334.  00:5534  E5                  		push	hl
     335.  00:5535  D1                  		pop		de														; guarda en de momentaneamente
     336.  00:5536                      
     337.  00:5536  E1                  		pop		hl														; continuamos  (*)
     338.  00:5537  D5                  		push	de														; guarda para la siguiente fila (**)
     339.  00:5538                      		
     340.  00:5538  06 20               		ld		b,32
     341.  00:553A  0E 60               		LD		C,G9K_VRAM		
     342.  00:553C                      		
     343.  00:553C  7A                  		ld		a,d
     344.  00:553D  FE 00               		cp		#00
     345.  00:553F  20 DF               		jr		nz,.loop_b
     346.  00:5541  7B                  		ld		a,e
     347.  00:5542  B7                  		or		a
     348.  00:5543  28 02               		jr		z,.fin_b
     349.  00:5545  18 D9               		jr		.loop_b
     350.  00:5547                      
     351.  00:5547                      .fin_b:
     352.  00:5547                      
     353.  00:5547  E1                  		pop		hl														; (**)
     354.  00:5548  C9                  		ret
     355.  00:5549                      
     356.  00:5549                      ;[vram_first_pattern_name] - first pattern name	
     357.  00:5549                      setup_nametable_Aplane:
     358.  00:5549                      		
     359.  00:5549  1E 07               		ld		e,#7
     360.  00:554B  21 00 C0            		ld		hl,#c000			;form #c000 to #d000
     361.  00:554E  CD F8 53            		CALL	G9kSetVramWrite	
     362.  00:5551  E5                  		push	hl					;(**)
     363.  00:5552                      		
     364.  00:5552  06 20               		ld		b,32
     365.  00:5554                      		
     366.  00:5554  2A 08 E0            		ld		hl,[vram_first_pattern_name]
     367.  00:5557  0E 60               		LD		C,G9K_VRAM		
     368.  00:5559                      .loop:
     369.  00:5559  7D                  		ld		a,l
     370.  00:555A  ED 79               		out		[c],a
     371.  00:555C  7C                  		ld		a,h
     372.  00:555D  ED 79               		out		[c],a
     373.  00:555F  23                  		inc		hl
     374.  00:5560                      		
     375.  00:5560  10 F7               		djnz	.loop
     376.  00:5562                      		
     377.  00:5562  D1                  		pop		de
     378.  00:5563  E5                  		push	hl				;current counter (*)
     379.  00:5564  21 80 00            		ld		hl,128;32*2
     380.  00:5567                      		
     381.  00:5567  19                  		add		hl,de				
     382.  00:5568  1E 07               		ld		e,#7		
     383.  00:556A  CD F8 53            		CALL	G9kSetVramWrite	
     384.  00:556D                      
     385.  00:556D  E5                  		push	hl
     386.  00:556E  D1                  		pop		de			;save on de for a while
     387.  00:556F                      
     388.  00:556F  E1                  		pop		hl		;continuamos  (*)
     389.  00:5570  D5                  		push	de		;save for next row (**)
     390.  00:5571                      		
     391.  00:5571  06 20               		ld		b,32
     392.  00:5573  0E 60               		LD		C,G9K_VRAM		
     393.  00:5575                      		
     394.  00:5575  7A                  		ld		a,d
     395.  00:5576  FE E0               		cp		#e0
     396.  00:5578  20 DF               		jr		nz,.loop
     397.  00:557A  7B                  		ld		a,e
     398.  00:557B  B7                  		or		a
     399.  00:557C  28 02               		jr		z,.fin
     400.  00:557E  18 D9               		jr		.loop
     401.  00:5580                      
     402.  00:5580                      .fin:
     403.  00:5580  E1                  		pop		hl			;(**)
     404.  00:5581  C9                  		ret
     405.  00:5582                      
     406.  00:5582                      carga_paleta_g9b:
     407.  00:5582                      
     408.  00:5582                      ; A  = Numbero de colores
     409.  00:5582                      ; HL = Puntero a la paleta
     410.  00:5582                      ; C  = Palette pointer  (0-3)  ... >3 => ret (haz esto sólo en el caso de paletas de 16 colores)
     411.  00:5582                      
     412.  00:5582  F5                  		push af
     413.  00:5583  79                  		ld a,c
     414.  00:5584  FE 04               		cp 4
     415.  00:5586  30 15               		jr.	nc,.exit
     416.  00:5588                      		
     417.  00:5588                      .paletavram:
     418.  00:5588                      
     419.  00:5588  F1                  		pop af	
     420.  00:5589  CB 09               		rrc c
     421.  00:558B  CB 09               		rrc c 															; c*64 (16 colores*4 bytes)
     422.  00:558D  47                  		ld	b,a
     423.  00:558E  87                  		add	a,a
     424.  00:558F  80                  		add	a,b															; number of colors * 3 = size
     425.  00:5590  47                  		ld	b,a    														; bytes a escribir
     426.  00:5591                      
     427.  00:5591  3E 0E               		ld	a,14														; g9k_palette_ptr
     428.  00:5593  D3 64               		out	[0x64],a
     429.  00:5595  79                  		ld	a,c
     430.  00:5596  D3 63               		out	[0x63],a
     431.  00:5598  0E 61               		ld	c,0x61														; g9k_palette
     432.  00:559A  ED B3               		otir
     433.  00:559C                      		
     434.  00:559C  C9                  		ret
     435.  00:559D                      
     436.  00:559D                      .exit:
     437.  00:559D                      
     438.  00:559D  F1                  		pop	af
     439.  00:559E  11 30 00            		ld		de,#30													; ADVERTENCIA, si omites la paleta ... debería ser para 16 colores siempre
     440.  00:55A1  19                  		add		hl,de
     441.  00:55A2                      
     442.  00:55A2  C9                  		ret
     443.  00:55A3                      
     444.  00:55A3                      G9kDisplayEnable:
     445.  00:55A3                      
     446.  00:55A3                      ; Función  :	Conectar la pantalla de la V9990
     447.  00:55A3                      ; Input    :    nada
     448.  00:55A3                      ; Output   :    nada
     449.  00:55A3                      ; Modifica :	A
     450.  00:55A3                      
     451.  00:55A3                               G9kReadReg G9K_CTRL+G9K_DIS_INC_READ
     451.  00:55A3                    > 
     451.  00:55A3                    > 
     451.  00:55A3                    > 
     451.  00:55A3                    > 
     451.  00:55A3  3E 48             >   LD  A,register
     451.  00:55A5  D3 64             >   OUT  (G9K_REG_SELECT),A
     451.  00:55A7  DB 63             >   IN  A,(G9K_REG_DATA)
     451.  00:55A9                    >   
     452.  00:55A9                               
     453.  00:55A9  F6 80                        or     A,G9K_CTRL_DISP
     454.  00:55AB  D3 63                        out    (G9K_REG_DATA),A
     455.  00:55AD                               
     456.  00:55AD  C9                           ret
     457.  00:55AE                      
     458.  00:55AE                      G9kDisplayDisable:
     459.  00:55AE                      
     460.  00:55AE                      ; Función  :	Desonectar la pantalla de la V9990
     461.  00:55AE                      ; Input    :    nada
     462.  00:55AE                      ; Output   :    nada
     463.  00:55AE                      ; Modifica :	A
     464.  00:55AE                      
     465.  00:55AE                               G9kReadReg G9K_CTRL+G9K_DIS_INC_READ
     465.  00:55AE                    > 
     465.  00:55AE                    > 
     465.  00:55AE                    > 
     465.  00:55AE                    > 
     465.  00:55AE  3E 48             >   LD  A,register
     465.  00:55B0  D3 64             >   OUT  (G9K_REG_SELECT),A
     465.  00:55B2  DB 63             >   IN  A,(G9K_REG_DATA)
     465.  00:55B4                    >   
     466.  00:55B4                               
     467.  00:55B4  E6 7F                        and    A,255-G9K_CTRL_DISP
     468.  00:55B6  D3 63                        out    (G9K_REG_DATA),A
     469.  00:55B8                               
     470.  00:55B8  C9                           RET
     471.  00:55B9                      
     472.  00:55B9                      OUT_ESCRIBE_UN_BYTE:													; Escribe 2 bytes y pasa al siguiente
     473.  00:55B9                      
     474.  00:55B9  0E 60               		LD		C,G9K_VRAM
     475.  00:55BB  7D                  		ld		a,l
     476.  00:55BC  ED 79               		out		[c],a
     477.  00:55BE  00 00 00 00         [4]		nop
     478.  00:55C2  7C                  		ld		a,h
     479.  00:55C3  ED 79               		out		[c],a
     480.  00:55C5                      
     481.  00:55C5  C9                  		ret
     482.  00:55C6                      
     483.  00:55C6                      VUELCA_BIN_EN_V9990:
     484.  00:55C6                      
     485.  00:55C6                      ; Función	:	Vuelca en vram de V9990 una cantidad de bytes nunca superior a 32K
     486.  00:55C6                      ; Input		:	Por orden en Stack:	Segunda página de bytes a volcar
     487.  00:55C6                      ;									Cantidad de bytes del segundo bloque a volcar
     488.  00:55C6                      ;									Primera página de bytes a volcar
     489.  00:55C6                      ;									Cantidad de bytes del primer bloque a volcar
     490.  00:55C6                      ;									4 dígitos menos significativos de dirección de V9990 donde copiar (hl)
     491.  00:55C6                      ;									2 dígitos más significativos de dirección de V9990 donde copiar (e)
     492.  00:55C6                      ; Output	:	Nada
     493.  00:55C6                      ; Modifica	:	A, HL, DE, C
     494.  00:55C6                      ; Notas		:	El bloque de datos a volcar debe ser lo primero de la página y sería conveniente dedicar esa página sólo a esos datos.
     495.  00:55C6                      
     496.  00:55C6  E1                  				pop		hl
     497.  00:55C7  22 1A C1            				ld		(var_cir_1),hl
     498.  00:55CA                      				
     499.  00:55CA  D1                  				pop		de				
     500.  00:55CB  E1                  				pop		hl				
     501.  00:55CC  CD F8 53            				call	G9kSetVramWrite	
     502.  00:55CF                      				
     503.  00:55CF  D1                  				pop		de
     504.  00:55D0  DD 21 00 80         				ld		ix,#8000
     505.  00:55D4                      
     506.  00:55D4  F1                  				pop		af
     507.  00:55D5  32 00 70            				ld		[#7000],a
     508.  00:55D8  DD 6E 00            				ld		l,(ix)
     509.  00:55DB  DD 66 01            				ld		h,(ix+1)
     510.  00:55DE                      
     511.  00:55DE                      .escribe_A_1:
     512.  00:55DE                      								
     513.  00:55DE  CD B9 55            				call	OUT_ESCRIBE_UN_BYTE
     514.  00:55E1  E5                  				push	hl
     515.  00:55E2  EB                  				ex		de,hl
     516.  00:55E3  11 02 00            				ld		de,2
     517.  00:55E6  B7                  				or		a
     518.  00:55E7  ED 52               				sbc		hl,de
     519.  00:55E9  11 00 00            				ld		de,0
     520.  00:55EC  CD 20 00            				call	DCOMPR				
     521.  00:55EF  CA 02 56            				jp		z,.segunda_parte
     522.  00:55F2                      				
     523.  00:55F2  11 02 00            				ld		de,2
     524.  00:55F5  DD 19               				add		ix,de				
     525.  00:55F7  EB                  				ex		de,hl
     526.  00:55F8  E1                  				pop		hl				
     527.  00:55F9  DD 6E 00            				ld		l,(ix)
     528.  00:55FC  DD 66 01            				ld		h,(ix+1)				
     529.  00:55FF                      						
     530.  00:55FF  C3 DE 55            				jp		.escribe_A_1	
     531.  00:5602                      
     532.  00:5602                      .segunda_parte:
     533.  00:5602                      
     534.  00:5602  E1                  				pop		hl				
     535.  00:5603  D1                  				pop		de
     536.  00:5604  DD 21 00 80         				ld		ix,#8000				
     537.  00:5608  F1                  				pop		af
     538.  00:5609  32 00 70            				ld		[#7000],a	
     539.  00:560C  DD 6E 00            				ld		l,(ix)
     540.  00:560F  DD 66 01            				ld		h,(ix+1)	
     541.  00:5612                      								
     542.  00:5612                      .escribe_A_2:
     543.  00:5612                      				
     544.  00:5612  CD B9 55            				call	OUT_ESCRIBE_UN_BYTE
     545.  00:5615  E5                  				push	hl
     546.  00:5616  EB                  				ex		de,hl
     547.  00:5617  11 02 00            				ld		de,2
     548.  00:561A  B7                  				or		a
     549.  00:561B  ED 52               				sbc		hl,de
     550.  00:561D  11 00 00            				ld		de,0
     551.  00:5620  CD 20 00            				call	DCOMPR				
     552.  00:5623  CA 36 56            				jp		z,.final
     553.  00:5626                      				
     554.  00:5626  11 02 00            				ld		de,2
     555.  00:5629  DD 19               				add		ix,de
     556.  00:562B  EB                  				ex		de,hl
     557.  00:562C  E1                  				pop		hl
     558.  00:562D  DD 6E 00            				ld		l,(ix)
     559.  00:5630  DD 66 01            				ld		h,(ix+1)
     560.  00:5633                      											
     561.  00:5633  C3 12 56            				jp		.escribe_A_2	
     562.  00:5636                      
     563.  00:5636                      .final:
     564.  00:5636                      
     565.  00:5636  E1                  				pop		hl	
     566.  00:5637                      				
     567.  00:5637  2A 1A C1            				ld		hl,(var_cir_1)
     568.  00:563A  E5                  				push	hl
     569.  00:563B                      				
     570.  00:563B  C9                  				ret			
    2958   00:563C                      
    2959   00:563C  00 (10692)          			ds		#8000-$													;llenamos de 0 hasta el final del bloque
    2960   00:8000                      								
    2961   00:8000                      ; ********** FIN PAGINA 000 DEL MEGAROM **********)))	
    2962   00:8000                      
    2963   00:8000                      ; --------------------------------------------------
    2964   00:8000                      ; (((********** PAGINA 001 DEL MEGAROM **********
    2965   00:8000                      
    2966   00:8000                      				org		#8000
    2967   00:8000                      
    2968   00:8000  (4000)              TILES_A_1:		incbin	"GRAFICOS/TILES A1.DAT"
    2969   00:C000                      
    2970   00:C000  00 (0)              				ds		#C000-$													;llenamos de 0 hasta el final del bloque
    2971   00:C000                      
    2972   00:C000                      ; ********** FIN PAGINA 001 DEL MEGAROM **********)))			
    2973   00:C000                      ; --------------------------------------------------
    2974   00:C000                      
    2975   00:C000                      ; --------------------------------------------------
    2976   00:C000                      ; (((********** PAGINA 002 DEL MEGAROM **********
    2977   00:C000                      
    2978   00:C000                      				org		#8000
    2979   00:8000                      
    2980   00:8000  (4000)              TILES_A_2:		incbin	"GRAFICOS/TILES A2.DAT"
    2981   00:C000                      
    2982   00:C000  00 (0)              				ds		#C000-$													;llenamos de 0 hasta el final del bloque
    2983   00:C000                      
    2984   00:C000                      ; ********** FIN PAGINA 002 DEL MEGAROM **********)))			
    2985   00:C000                      ; --------------------------------------------------
    2986   00:C000                      
    2987   00:C000                      ; --------------------------------------------------
    2988   00:C000                      ; (((********** PAGINA 003 DEL MEGAROM **********
    2989   00:C000                      ; Pintar la pantalla que toca. mapa-hypertiles-tiles
    2990   00:C000                      
    2991   00:C000                      				org		#8000
    2992   00:8000                      
    2993   00:8000                      PINTAMOS_PANTALLA_EN_LA_QUE_ESTAMOS:
    2994   00:8000                      
    2995   00:8000  CD 1C 80            				call	SPRITES_DESAPARECIDOS
    2996   00:8003  CD 70 80            				call	PLANO_B_DESAPARECIDO
    2997   00:8006  CD 9D 81            				call	CALCULA_PANTALLA_EN_LA_QUE_ESTA
    2998   00:8009  CD B3 81            				call	SITUA_EL_PUNTERO_EN_EL_MAPA_SEGUN_PANTALLA
    2999   00:800C  CD BE 81            				call	CALCULA_VRAM_DONDE_PINTAR
    3000   00:800F  CD 22 82            				call	PINTA_PATRONES_PANTALLA_A
    3001   00:8012  CD C4 80            				call	NUEVA_POSICION_DE_SCROLL
    3002   00:8015  CD E9 80            				call	CREA_SCROLL_ADECUADO
    3003   00:8018  CD 00 83            				call	TILES_DE_B
    3004   00:801B  C9                  				ret
    3005   00:801C                      
    3006   00:801C                      SPRITES_DESAPARECIDOS:
    3007   00:801C                      
    3008   00:801C                      
    3009   00:801C  DD 21 73 C0         				ld		ix,	ATRIBUTOS_SPRITES+64
    3010   00:8020  06 20               				ld		b,32
    3011   00:8022  3E DC               				ld		a,220
    3012   00:8024                      
    3013   00:8024                      .bucle_borra_objeto:
    3014   00:8024                      
    3015   00:8024  DD 77 00            				ld		(ix),a
    3016   00:8027  11 01 00            				ld		de,1
    3017   00:802A  DD 19               				add		ix,de
    3018   00:802C  10 F6               				djnz	.bucle_borra_objeto
    3019   00:802E                      
    3020   00:802E  DD 21 33 C0         				ld		ix,ATRIBUTOS_SPRITES
    3021   00:8032  DD 7E 00            				ld		a,(ix)
    3022   00:8035  32 26 C1            				ld		(var_cir_7),a
    3023   00:8038  3E DC               				ld		a,220
    3024   00:803A  DD 77 00            				ld		(ix),a
    3025   00:803D  DD 77 04            				ld		(ix+4),a
    3026   00:8040  DD 77 08            				ld		(ix+8),a
    3027   00:8043  DD 77 0C            				ld		(ix+12),a
    3028   00:8046                      				
    3029   00:8046  DD 7E 43            				ld		a,(ix+67)
    3030   00:8049  E6 CF               				and		11001111b
    3031   00:804B  DD 77 43            				ld		(ix+67),a
    3032   00:804E  DD 77 47            				ld		(ix+71),a
    3033   00:8051  DD 77 4B            				ld		(ix+75),a
    3034   00:8054  DD 77 4F            				ld		(ix+79),a
    3035   00:8057  DD 77 53            				ld		(ix+83),a
    3036   00:805A  DD 77 57            				ld		(ix+87),a
    3037   00:805D  DD 77 5B            				ld		(ix+91),a
    3038   00:8060  DD 77 5F            				ld		(ix+95),a
    3039   00:8063                      
    3040   00:8063  CD 34 51            				call	PINTA_SPRITES
    3041   00:8066                      
    3042   00:8066  DD 21 33 C0         				ld		ix,ATRIBUTOS_SPRITES
    3043   00:806A  3A 26 C1            				ld		a,(var_cir_7)
    3044   00:806D  C3 06 51            				jp		COMUN_Y_CUATRO_SPRITES
    3045   00:8070                      
    3046   00:8070                      PLANO_B_DESAPARECIDO:
    3047   00:8070                      
    3048   00:8070  1E 07               				ld		e,7
    3049   00:8072  21 00 E0            				ld		hl,#e000
    3050   00:8075  E5                  				push	hl
    3051   00:8076  CD F8 53            				call	G9kSetVramWrite
    3052   00:8079  21 C0 03            				ld		hl,960
    3053   00:807C  01 00 00            				ld		bc,0
    3054   00:807F  3E 00               				ld		a,0
    3055   00:8081  32 1A C1            				ld      (var_cir_1),a
    3056   00:8084                      
    3057   00:8084                      .bucle:
    3058   00:8084                      
    3059   00:8084  E5                  				push	hl
    3060   00:8085  C5                  				push	bc
    3061   00:8086  E1                  				pop		hl
    3062   00:8087  CD B9 55            				call	OUT_ESCRIBE_UN_BYTE
    3063   00:808A  11 01 00            				ld		de,1
    3064   00:808D  B7                  				or		a
    3065   00:808E  ED 5A               				adc		hl,de
    3066   00:8090                      
    3067   00:8090  E5                  				push	hl
    3068   00:8091  C1                  				pop		bc
    3069   00:8092  E1                  				pop		hl
    3070   00:8093                      
    3071   00:8093  3A 1A C1            				ld		a,(var_cir_1)
    3072   00:8096  3C                  				inc		a
    3073   00:8097  32 1A C1            				ld		(var_cir_1),a
    3074   00:809A  FE 20               				cp		32
    3075   00:809C  C2 B9 80            				jp		nz,.bucle_2
    3076   00:809F                      
    3077   00:809F  AF                  				xor		a
    3078   00:80A0  32 1A C1            				ld		(var_cir_1),a
    3079   00:80A3                      
    3080   00:80A3  D1                  				pop		de
    3081   00:80A4  E5                  				push	hl
    3082   00:80A5  D5                  				push	de
    3083   00:80A6  E1                  				pop		hl
    3084   00:80A7  11 80 00            				ld		de,128
    3085   00:80AA  B7                  				or		a
    3086   00:80AB  ED 5A               				adc		hl,de
    3087   00:80AD  1E 07               				ld		e,7
    3088   00:80AF  CD F8 53            				call	G9kSetVramWrite
    3089   00:80B2  D1                  				pop		de
    3090   00:80B3  E5                  				push	hl
    3091   00:80B4  D5                  				push	de
    3092   00:80B5  E1                  				pop		hl
    3093   00:80B6  11 01 00            				ld		de,1
    3094   00:80B9                      
    3095   00:80B9                      .bucle_2:
    3096   00:80B9                      
    3097   00:80B9  B7                  				or		a
    3098   00:80BA  ED 52               				sbc		hl,de
    3099   00:80BC  7C                  				ld		a,h
    3100   00:80BD  B5                  				or		l
    3101   00:80BE  B7                  				or		a
    3102   00:80BF  C2 84 80            				jp		nz,.bucle
    3103   00:80C2  E1                  				pop		hl
    3104   00:80C3  C9                  				ret
    3105   00:80C4                      
    3106   00:80C4                      NUEVA_POSICION_DE_SCROLL:
    3107   00:80C4                      
    3108   00:80C4  DD E5               				push	ix
    3109   00:80C6  DD 21 D5 8F         				ld		ix,RELACION_PARTE_VRAM_POS_SCROLL
    3110   00:80CA  3A 16 C0            				ld		a,(POSICION_ACTUAL_SCROLL)
    3111   00:80CD  87 87               	[2]			add		a
    3112   00:80CF  5F                  				ld		e,a
    3113   00:80D0  16 00               				ld		d,0
    3114   00:80D2  DD 19               				add		ix,de
    3115   00:80D4  DD 6E 00            				ld		l,(ix)
    3116   00:80D7  DD 66 01            				ld		h,(ix+1)
    3117   00:80DA  22 06 C0            				ld		(pos_scroll_x_A_objet),hl
    3118   00:80DD  DD 6E 02            				ld		l,(ix+2)
    3119   00:80E0  DD 66 03            				ld		h,(ix+3)
    3120   00:80E3  22 08 C0            				ld		(pos_scroll_y_A_objet),hl
    3121   00:80E6  DD E1               				pop		ix
    3122   00:80E8  C9                  				ret
    3123   00:80E9                      
    3124   00:80E9                      CREA_SCROLL_ADECUADO:
    3125   00:80E9                      
    3126   00:80E9  3A 17 C0            				ld		a,(DIRECCION_DONDE_VAMOS)
    3127   00:80EC  FE 01               				cp		1
    3128   00:80EE  CA 01 81            				jp		z,.up
    3129   00:80F1  FE 03               				cp		3
    3130   00:80F3  CA 22 81            				jp		z,.right
    3131   00:80F6  FE 05               				cp		5
    3132   00:80F8  CA 0C 81            				jp		z,.down
    3133   00:80FB  FE 07               				cp		7
    3134   00:80FD  CA 17 81            				jp		z,.left
    3135   00:8100  C9                  				ret
    3136   00:8101                      
    3137   00:8101                      .up:
    3138   00:8101                      
    3139   00:8101  CD 2D 81            				call	.scroll_adecuado_comun_1_vertical
    3140   00:8104  ED 52               				sbc		hl,de
    3141   00:8106  CD 3F 81            				call	.scroll_adecuado_comun_2_vertical				
    3142   00:8109  C3 01 81            				jp		.up
    3143   00:810C                      
    3144   00:810C                      .down:
    3145   00:810C                      
    3146   00:810C  CD 2D 81            				call	.scroll_adecuado_comun_1_vertical
    3147   00:810F  ED 5A               				adc		hl,de
    3148   00:8111  CD 3F 81            				call	.scroll_adecuado_comun_2_vertical
    3149   00:8114  C3 0C 81            				jp		.down
    3150   00:8117                      
    3151   00:8117                      .left:
    3152   00:8117                      
    3153   00:8117  CD 61 81            				call	.scroll_adecuado_comun_1_horizontal
    3154   00:811A  ED 52               				sbc		hl,de
    3155   00:811C  CD 73 81            				call	.scroll_adecuado_comun_2_horizontal
    3156   00:811F  C3 17 81            				jp		.left
    3157   00:8122                      
    3158   00:8122                      .right:
    3159   00:8122                      
    3160   00:8122  CD 61 81            				call	.scroll_adecuado_comun_1_horizontal
    3161   00:8125  ED 5A               				adc		hl,de
    3162   00:8127  CD 73 81            				call	.scroll_adecuado_comun_2_horizontal
    3163   00:812A  C3 22 81            				jp		.right
    3164   00:812D                      
    3165   00:812D                      .scroll_adecuado_comun_1_vertical:
    3166   00:812D                      
    3167   00:812D  2A 04 C0            				ld		hl,(posicion_scroll_y_A)
    3168   00:8130  ED 5B 08 C0         				ld		de,(pos_scroll_y_A_objet)
    3169   00:8134  CD 8F 81            				call	.comun_vertical_horizontal_1
    3170   00:8137  11 01 00            				ld		de,1
    3171   00:813A  B7                  				or		a
    3172   00:813B  2A 04 C0            				ld		hl,(posicion_scroll_y_A)
    3173   00:813E  C9                  				ret
    3174   00:813F                      				
    3175   00:813F                      .scroll_adecuado_comun_2_vertical:
    3176   00:813F                      
    3177   00:813F  7C                  				ld		a,h
    3178   00:8140  E6 01               				and		00000001b
    3179   00:8142  67                  				ld		h,a
    3180   00:8143  22 04 C0            				ld		(posicion_scroll_y_A),hl
    3181   00:8146                      				G9kWaitVsync
    3181   00:8146                    > 
    3181   00:8146                    > 
    3181   00:8146                    > 
    3181   00:8146  DB 65             >         IN      A,(G9K_STATUS)
    3181   00:8148  E6 40             >         AND     A,G9K_STATUS_VR
    3181   00:814A  20 FA             >   JR  NZ,$-4
    3181   00:814C                    > 
    3181   00:814C  DB 65             >         IN      A,(G9K_STATUS)
    3181   00:814E  E6 40             >         AND     A,G9K_STATUS_VR
    3181   00:8150  28 FA             >   JR  Z,$-4
    3181   00:8152                    >         
    3182   00:8152                      				G9kWriteReg G9K_SCROLL_LOW_Y,l
    3182   00:8152                    > 
    3182   00:8152                    > 
    3182   00:8152                    > 
    3182   00:8152                    > 
    3182   00:8152  3E 11             >   LD  A,register
    3182   00:8154  D3 64             >   OUT  (G9K_REG_SELECT),A
    3182   00:8156  7D                >   LD  A,data
    3182   00:8157  D3 63             >   OUT  (G9K_REG_DATA),A
    3182   00:8159                    >   
    3183   00:8159                      				G9kWriteReg G9K_SCROLL_HIGH_Y,h
    3183   00:8159                    > 
    3183   00:8159                    > 
    3183   00:8159                    > 
    3183   00:8159                    > 
    3183   00:8159  3E 12             >   LD  A,register
    3183   00:815B  D3 64             >   OUT  (G9K_REG_SELECT),A
    3183   00:815D  7C                >   LD  A,data
    3183   00:815E  D3 63             >   OUT  (G9K_REG_DATA),A
    3183   00:8160                    >   
    3184   00:8160                      
    3185   00:8160  C9                  				ret
    3186   00:8161                      
    3187   00:8161                      .scroll_adecuado_comun_1_horizontal:
    3188   00:8161                      
    3189   00:8161  2A 02 C0            				ld		hl,(posicion_scroll_x_A)
    3190   00:8164  ED 5B 06 C0         				ld		de,(pos_scroll_x_A_objet)
    3191   00:8168  CD 8F 81            				call	.comun_vertical_horizontal_1
    3192   00:816B  11 40 00            				ld		de,64
    3193   00:816E  B7                  				or		a
    3194   00:816F  2A 02 C0            				ld		hl,(posicion_scroll_x_A)
    3195   00:8172  C9                  				ret
    3196   00:8173                      
    3197   00:8173                      .scroll_adecuado_comun_2_horizontal:
    3198   00:8173                      
    3199   00:8173  7C                  				ld		a,h
    3200   00:8174  E6 3F               				and		00111111b
    3201   00:8176  67                  				ld		h,a
    3202   00:8177  22 02 C0            				ld		(posicion_scroll_x_A),hl
    3203   00:817A                      				G9kWriteReg G9K_SCROLL_LOW_X,l
    3203   00:817A                    > 
    3203   00:817A                    > 
    3203   00:817A                    > 
    3203   00:817A                    > 
    3203   00:817A  3E 13             >   LD  A,register
    3203   00:817C  D3 64             >   OUT  (G9K_REG_SELECT),A
    3203   00:817E  7D                >   LD  A,data
    3203   00:817F  D3 63             >   OUT  (G9K_REG_DATA),A
    3203   00:8181                    >   
    3204   00:8181                      				G9kWriteReg G9K_SCROLL_HIGH_X,h
    3204   00:8181                    > 
    3204   00:8181                    > 
    3204   00:8181                    > 
    3204   00:8181                    > 
    3204   00:8181  3E 14             >   LD  A,register
    3204   00:8183  D3 64             >   OUT  (G9K_REG_SELECT),A
    3204   00:8185  7C                >   LD  A,data
    3204   00:8186  D3 63             >   OUT  (G9K_REG_DATA),A
    3204   00:8188                    >   
    3205   00:8188                      
    3206   00:8188  21 C8 00            				ld		hl,200
    3207   00:818B  CD 50 52            				call	RUTINA_RETRASO
    3208   00:818E  C9                  				ret
    3209   00:818F                      
    3210   00:818F                      .comun_vertical_horizontal_1:
    3211   00:818F                      
    3212   00:818F  B7                  				or		a
    3213   00:8190  ED 52               				sbc		hl,de
    3214   00:8192  7C                  				ld		a,h
    3215   00:8193  B5                  				or		l
    3216   00:8194  B7                  				or		a
    3217   00:8195  CA 9A 81            				jp		z,.saca_valor_pila_y_ret
    3218   00:8198  AF                  				xor		a
    3219   00:8199  C9                  				ret
    3220   00:819A                      
    3221   00:819A                      .saca_valor_pila_y_ret:
    3222   00:819A                      
    3223   00:819A  E1 E1               	[2]			pop		hl
    3224   00:819C  C9                  				ret
    3225   00:819D                      
    3226   00:819D                      CALCULA_PANTALLA_EN_LA_QUE_ESTA:
    3227   00:819D                      
    3228   00:819D  DD 21 2B 92         				ld		ix,RELACION_PANTALLA_TILE
    3229   00:81A1  ED 5B 0C C0         				ld		de,(PANTALLA_ACTUAL)
    3230   00:81A5  DD 19 DD 19         [2]				add 	ix,de
    3231   00:81A9  DD 6E 00            				ld		l,(ix)
    3232   00:81AC  DD 66 01            				ld		h,(ix+1)
    3233   00:81AF  22 0E C0            				ld		(TILE_SUP_IZQ_PANTALLA),hl
    3234   00:81B2  C9                  				ret
    3235   00:81B3                      
    3236   00:81B3                      SITUA_EL_PUNTERO_EN_EL_MAPA_SEGUN_PANTALLA:
    3237   00:81B3                      
    3238   00:81B3  DD 21 BB 92         				ld		ix,MAPA
    3239   00:81B7  ED 5B 0E C0         				ld		de,(TILE_SUP_IZQ_PANTALLA)
    3240   00:81BB  DD 19               				add		ix,de
    3241   00:81BD  C9                  				ret
    3242   00:81BE                      
    3243   00:81BE                      CALCULA_VRAM_DONDE_PINTAR:
    3244   00:81BE                      
    3245   00:81BE  3A 17 C0            				ld		a,(DIRECCION_DONDE_VAMOS)
    3246   00:81C1  FE 01               				cp		1
    3247   00:81C3  CA D6 81            				jp		Z,.up
    3248   00:81C6  FE 03               				cp		3
    3249   00:81C8  CA E1 81            				jp		Z,.right_left
    3250   00:81CB  FE 05               				cp		5
    3251   00:81CD  CA EC 81            				jp		Z,.down
    3252   00:81D0  FE 07               				cp		7
    3253   00:81D2  CA E1 81            				jp		Z,.right_left
    3254   00:81D5  C9                  				ret
    3255   00:81D6                      
    3256   00:81D6                      .up:
    3257   00:81D6                      
    3258   00:81D6  DD E5               				push	ix
    3259   00:81D8  CD F7 81            				call	.comun_direcciones_1
    3260   00:81DB  11 00 00            				ld		de,0
    3261   00:81DE  C3 0E 82            				jp		.comun_direcciones_2
    3262   00:81E1                      
    3263   00:81E1                      .right_left:
    3264   00:81E1                      
    3265   00:81E1  DD E5               				push	ix
    3266   00:81E3  CD F7 81            				call	.comun_direcciones_1
    3267   00:81E6  11 10 00            				ld		de,16
    3268   00:81E9  C3 0E 82            				jp		.comun_direcciones_2
    3269   00:81EC                      
    3270   00:81EC                      .down:
    3271   00:81EC                      
    3272   00:81EC  DD E5               				push	ix
    3273   00:81EE  CD F7 81            				call	.comun_direcciones_1
    3274   00:81F1  11 20 00            				ld		de,32
    3275   00:81F4  C3 0E 82            				jp		.comun_direcciones_2
    3276   00:81F7                      
    3277   00:81F7                      .comun_direcciones_1:
    3278   00:81F7                      
    3279   00:81F7  DD 21 F9 8F         				ld		ix,RELACION_POSICION_VRAM_A_PINTAR
    3280   00:81FB  3A 16 C0            				ld		a,(POSICION_ACTUAL_SCROLL)
    3281   00:81FE  87                  				add		a
    3282   00:81FF  5F                  				ld		e,a
    3283   00:8200  16 00               				ld		d,0
    3284   00:8202  DD 19               				add		ix,de
    3285   00:8204  DD 6E 00            				ld		l,(ix)
    3286   00:8207  DD 66 01            				ld		h,(ix+1)
    3287   00:820A  22 14 C0            				ld		(BYTE_VRAM_EMPIEZA_HL),hl
    3288   00:820D  C9                  				ret
    3289   00:820E                      
    3290   00:820E                      .comun_direcciones_2:				
    3291   00:820E                      
    3292   00:820E  DD 19               				add		ix,de
    3293   00:8210  DD 6E 00            				ld		l,(ix)
    3294   00:8213  DD 66 01            				ld		h,(ix+1)
    3295   00:8216  22 14 C0            				ld		(BYTE_VRAM_EMPIEZA_HL),hl
    3296   00:8219  DD 7E 30            				ld		a,(ix+8*2*3)
    3297   00:821C  32 16 C0            				ld		(POSICION_ACTUAL_SCROLL),a
    3298   00:821F  DD E1               				pop		ix
    3299   00:8221  C9                  				ret
    3300   00:8222                      				
    3301   00:8222                      PINTA_PATRONES_PANTALLA_A:
    3302   00:8222                      
    3303   00:8222  3A 12 C0            				ld		a,(BYTE_VRAM_EMPIEZA_E)
    3304   00:8225  5F                  				ld		e,a
    3305   00:8226  2A 14 C0            				ld		hl,(BYTE_VRAM_EMPIEZA_HL)
    3306   00:8229  D5                  				push	de
    3307   00:822A  E5                  				push	hl
    3308   00:822B  CD F8 53            				call	G9kSetVramWrite
    3309   00:822E  06 04               				ld		b,4
    3310   00:8230                      			
    3311   00:8230                      .bucle:				
    3312   00:8230  78                  				ld		a,b
    3313   00:8231  32 24 C1            				ld		(var_cir_6),a
    3314   00:8234  CD 40 82            				call	PINTA_FILA_8_SUPERTYLES_Y_SE_COLOCA_EN_EL_SIGUIENTE
    3315   00:8237  3A 24 C1            				ld		a,(var_cir_6)
    3316   00:823A  47                  				ld		b,a
    3317   00:823B  10 F3               				djnz	.bucle
    3318   00:823D  D1                  				pop		de
    3319   00:823E  E1                  				pop		hl
    3320   00:823F  C9                  				ret
    3321   00:8240                      
    3322   00:8240                      PINTA_FILA_8_SUPERTYLES_Y_SE_COLOCA_EN_EL_SIGUIENTE:
    3323   00:8240                      
    3324   00:8240  E1                  				pop		hl
    3325   00:8241  22 1C C1            				ld		(var_cir_2),hl
    3326   00:8244                      
    3327   00:8244  06 08               				ld		b,8
    3328   00:8246                      
    3329   00:8246                      .bucle:
    3330   00:8246                      
    3331   00:8246  78                  				ld		a,b
    3332   00:8247  32 20 C1            				ld		(var_cir_4),a
    3333   00:824A  CD 6A 82            				call	PINTA_UN_HYPERTILE_Y_SE_COLOCA_PARA_EL_SIGUIENTE
    3334   00:824D  3A 20 C1            				ld		a,(var_cir_4)
    3335   00:8250  47                  				ld		b,a
    3336   00:8251  10 F3               				djnz	.bucle
    3337   00:8253                      
    3338   00:8253  E1                  				pop		hl
    3339   00:8254  11 C0 01            				ld		de,32*2+64*2*3
    3340   00:8257  B7                  				or		a
    3341   00:8258  ED 5A               				adc		hl,de
    3342   00:825A  D1                  				pop		de
    3343   00:825B  D5                  				push	de
    3344   00:825C  E5                  				push	hl
    3345   00:825D  CD F8 53            				call	G9kSetVramWrite
    3346   00:8260  11 58 00            				ld		de,88
    3347   00:8263  DD 19               				add		ix,de
    3348   00:8265                      
    3349   00:8265  2A 1C C1            				ld		hl,(var_cir_2)
    3350   00:8268  E5                  				push	hl
    3351   00:8269                      
    3352   00:8269  C9                  				ret
    3353   00:826A                      
    3354   00:826A                      PINTA_UN_HYPERTILE_Y_SE_COLOCA_PARA_EL_SIGUIENTE:
    3355   00:826A                      
    3356   00:826A  E1                  				pop		hl
    3357   00:826B  22 1E C1            				ld		(var_cir_3),hl
    3358   00:826E                      
    3359   00:826E  DD 7E 00            				ld		a,(ix)
    3360   00:8271  CD DE 82            				call	CALCULA_HYPERTILE_EN_EL_QUE_ESTA
    3361   00:8274  CD F3 82            				call	SITUA_EL_PUNTERO_DE_SUPER_TILES
    3362   00:8277  CD D3 82            				call	PINTA_UN_TILE_DEL_HYPERTILE
    3363   00:827A  CD A6 82            				call	.BLOQUE_TRES_TYLES
    3364   00:827D  06 03               				ld		b,3
    3365   00:827F                      .bucle:
    3366   00:827F                      
    3367   00:827F  78                  				ld		a,b
    3368   00:8280  32 22 C1            				ld		(var_cir_5),a	
    3369   00:8283  CD AF 82            				call	AVANZA_A_LA_SIGUIENTE_LINEA_DE_PATRONES
    3370   00:8286  CD A6 82            				call	.BLOQUE_TRES_TYLES
    3371   00:8289  3A 22 C1            				ld		a,(var_cir_5)
    3372   00:828C  47                  				ld		b,a
    3373   00:828D  10 F0               				djnz	.bucle
    3374   00:828F                      				
    3375   00:828F  E1                  				pop		hl
    3376   00:8290  11 78 01            				ld		de,62*2*3+4
    3377   00:8293  B7                  				or		a
    3378   00:8294  ED 52               				sbc		hl,de
    3379   00:8296  D1                  				pop		de
    3380   00:8297  D5                  				push	de
    3381   00:8298  E5                  				push	hl
    3382   00:8299  CD F8 53            				call	G9kSetVramWrite
    3383   00:829C  11 01 00            				ld		de,1
    3384   00:829F  DD 19               				add		ix,de
    3385   00:82A1                      
    3386   00:82A1  2A 1E C1            				ld		hl,(var_cir_3)
    3387   00:82A4  E5                  				push	hl
    3388   00:82A5                      
    3389   00:82A5  C9                  				ret
    3390   00:82A6                      
    3391   00:82A6                      .BLOQUE_TRES_TYLES:
    3392   00:82A6                      
    3393   00:82A6  CD CE 82            				call	AVANZA_AL_SIGUIENTE_TYLE
    3394   00:82A9  CD CE 82            				call	AVANZA_AL_SIGUIENTE_TYLE
    3395   00:82AC  C3 CE 82            				jp		AVANZA_AL_SIGUIENTE_TYLE
    3396   00:82AF                      
    3397   00:82AF                      AVANZA_A_LA_SIGUIENTE_LINEA_DE_PATRONES:
    3398   00:82AF                      
    3399   00:82AF  D1                  				pop		de
    3400   00:82B0  ED 53 1A C1         				ld		(var_cir_1),de
    3401   00:82B4                      
    3402   00:82B4  E1                  				pop		hl
    3403   00:82B5  11 80 00            				ld		de,64*2
    3404   00:82B8  B7                  				or		a
    3405   00:82B9  ED 5A               				adc		hl,de
    3406   00:82BB  D1                  				pop		de
    3407   00:82BC  D5                  				push	de
    3408   00:82BD  E5                  				push	hl
    3409   00:82BE  ED 4B 1A C1         				ld		bc,(var_cir_1)
    3410   00:82C2  C5                  				push	bc
    3411   00:82C3                      
    3412   00:82C3  CD F8 53            				call	G9kSetVramWrite
    3413   00:82C6  11 3A 00            				ld		de,29*2
    3414   00:82C9  FD 19               				add		iy,de
    3415   00:82CB  C3 D3 82            				jp		PINTA_UN_TILE_DEL_HYPERTILE
    3416   00:82CE                      
    3417   00:82CE                      AVANZA_AL_SIGUIENTE_TYLE:
    3418   00:82CE                      
    3419   00:82CE  11 02 00            				ld		de,2
    3420   00:82D1  FD 19               				add		iy,de
    3421   00:82D3                      
    3422   00:82D3                      PINTA_UN_TILE_DEL_HYPERTILE:
    3423   00:82D3                      
    3424   00:82D3  1E 00               				ld		e,0
    3425   00:82D5  FD 66 01            				ld		h,(iy+1)
    3426   00:82D8  FD 6E 00            				ld		l,(iy)
    3427   00:82DB  C3 B9 55            				jp		OUT_ESCRIBE_UN_BYTE
    3428   00:82DE                      
    3429   00:82DE                      CALCULA_HYPERTILE_EN_EL_QUE_ESTA:
    3430   00:82DE                      
    3431   00:82DE  FD 21 5B 90         				ld		iy,RELACION_TILE_HYPERTILE
    3432   00:82E2  5F                  				ld		e,a
    3433   00:82E3  16 00               				ld		d,0
    3434   00:82E5  FD 19 FD 19         [2]				add 	iy,de
    3435   00:82E9  FD 6E 00            				ld		l,(iy)
    3436   00:82EC  FD 66 01            				ld		h,(iy+1)
    3437   00:82EF  22 10 C0            				ld		(TILE_SUP_IZQ_HYPERTILE),hl
    3438   00:82F2  C9                  				ret
    3439   00:82F3                      
    3440   00:82F3                      SITUA_EL_PUNTERO_DE_SUPER_TILES:
    3441   00:82F3                      
    3442   00:82F3  FD 21 BB 9B         				ld		iy,HYPERTYLES
    3443   00:82F7  ED 5B 10 C0         				ld		de,(TILE_SUP_IZQ_HYPERTILE)
    3444   00:82FB  FD 19 FD 19         	[2]			add		iy,de
    3445   00:82FF  C9                  				ret
    3446   00:8300                      
    3447   00:8300                      TILES_DE_B:
    3448   00:8300                      
    3449   00:8300  3A 0C C0            				ld		a,(PANTALLA_ACTUAL)
    3450   00:8303  87                  				add		a
    3451   00:8304  DD 21 3D 8C         				ld      ix,RELACION_EXTRAS_TILES_B
    3452   00:8308  5F                  				ld		e,a
    3453   00:8309  16 00               				ld		d,0
    3454   00:830B  DD 19               				add		ix,de
    3455   00:830D                      
    3456   00:830D                      .REUSANDO_EL_PINTADO_DE_B:
    3457   00:830D                      
    3458   00:830D  DD 6E 00            				ld		l,(ix)
    3459   00:8310  DD 66 01            				ld		h,(ix+1)
    3460   00:8313  E9                  				jp		hl
    3461   00:8314  C9                  				ret
    3462   00:8315                      
    3463   00:8315                      				include	"CODIGO/PINTA TILES EN B SEGUN PANTALLA.asm"
       1.  00:8315                      .PANTALLA00:
       2.  00:8315                      
       3.  00:8315  C9                  				ret
       4.  00:8316                      
       5.  00:8316                      .PANTALLA12:
       6.  00:8316                      
       7.  00:8316  DD 21 C9 8C         				ld		ix,RELACION_TILES_B_PANTALLA_12
       8.  00:831A  C3 A9 83            				jp		.PINTURA_GLOBAL
       9.  00:831D                      
      10.  00:831D                      .PANTALLA13:
      11.  00:831D                      
      12.  00:831D  DD 21 D3 8C         				ld		ix,RELACION_TILES_B_PANTALLA_13
      13.  00:8321  C3 A9 83            				jp		.PINTURA_GLOBAL
      14.  00:8324                      
      15.  00:8324                      .PANTALLA14:
      16.  00:8324                      
      17.  00:8324  DD 21 FB 8C         				ld		ix,RELACION_TILES_B_PANTALLA_14
      18.  00:8328  C3 A9 83            				jp		.PINTURA_GLOBAL
      19.  00:832B                      
      20.  00:832B                      .PANTALLA15:
      21.  00:832B                      
      22.  00:832B  DD 21 3F 8D         				ld		ix,RELACION_TILES_B_PANTALLA_15
      23.  00:832F  C3 A9 83            				jp		.PINTURA_GLOBAL
      24.  00:8332                      
      25.  00:8332                      .PANTALLA19:
      26.  00:8332                      
      27.  00:8332  DD 21 55 8D         				ld		ix,RELACION_TILES_B_PANTALLA_19
      28.  00:8336  C3 A9 83            				jp		.PINTURA_GLOBAL
      29.  00:8339                      
      30.  00:8339                      .PANTALLA20:
      31.  00:8339                      
      32.  00:8339  DD 21 67 8D         				ld		ix,RELACION_TILES_B_PANTALLA_20
      33.  00:833D  C3 A9 83            				jp		.PINTURA_GLOBAL
      34.  00:8340                      
      35.  00:8340                      .PANTALLA21:
      36.  00:8340                      
      37.  00:8340  DD 21 C1 8D         				ld		ix,RELACION_TILES_B_PANTALLA_21
      38.  00:8344  C3 A9 83            				jp		.PINTURA_GLOBAL
      39.  00:8347                      
      40.  00:8347                      .PANTALLA22:
      41.  00:8347                      
      42.  00:8347  DD 21 F3 8D         				ld		ix,RELACION_TILES_B_PANTALLA_22
      43.  00:834B  C3 A9 83            				jp		.PINTURA_GLOBAL
      44.  00:834E                      
      45.  00:834E                      .PANTALLA23:
      46.  00:834E                      
      47.  00:834E  DD 21 1B 8E         				ld		ix,RELACION_TILES_B_PANTALLA_23
      48.  00:8352  C3 A9 83            				jp		.PINTURA_GLOBAL
      49.  00:8355                      
      50.  00:8355                      .PANTALLA24:
      51.  00:8355                      
      52.  00:8355  DD 21 53 8E         				ld		ix,RELACION_TILES_B_PANTALLA_24
      53.  00:8359  C3 A9 83            				jp		.PINTURA_GLOBAL
      54.  00:835C                      
      55.  00:835C                      .PANTALLA27:
      56.  00:835C                      
      57.  00:835C  DD 21 69 8E         				ld		ix,RELACION_TILES_B_PANTALLA_27
      58.  00:8360  C3 A9 83            				jp		.PINTURA_GLOBAL
      59.  00:8363                      
      60.  00:8363                      .PANTALLA28:
      61.  00:8363                      
      62.  00:8363  DD 21 73 8E         				ld		ix,RELACION_TILES_B_PANTALLA_28
      63.  00:8367  C3 A9 83            				jp		.PINTURA_GLOBAL
      64.  00:836A                      
      65.  00:836A                      .PANTALLA29:
      66.  00:836A                      
      67.  00:836A  DD 21 7D 8E         				ld		ix,RELACION_TILES_B_PANTALLA_29
      68.  00:836E  C3 A9 83            				jp		.PINTURA_GLOBAL
      69.  00:8371                      
      70.  00:8371                      .PANTALLA35:
      71.  00:8371                      
      72.  00:8371  DD 21 B1 8E         				ld		ix,RELACION_TILES_B_PANTALLA_35
      73.  00:8375  C3 A9 83            				jp		.PINTURA_GLOBAL
      74.  00:8378                      
      75.  00:8378                      .PANTALLA42:
      76.  00:8378                      
      77.  00:8378  DD 21 C7 8E         				ld		ix,RELACION_TILES_B_PANTALLA_42
      78.  00:837C  C3 A9 83            				jp		.PINTURA_GLOBAL
      79.  00:837F                      
      80.  00:837F                      .PANTALLA51:
      81.  00:837F                      
      82.  00:837F  DD 21 D1 8E         				ld		ix,RELACION_TILES_B_PANTALLA_51
      83.  00:8383  C3 A9 83            				jp		.PINTURA_GLOBAL
      84.  00:8386                      
      85.  00:8386                      .PANTALLA52:
      86.  00:8386                      
      87.  00:8386  DD 21 DB 8E         				ld		ix,RELACION_TILES_B_PANTALLA_52
      88.  00:838A  C3 A9 83            				jp		.PINTURA_GLOBAL
      89.  00:838D                      
      90.  00:838D                      .PANTALLA55:
      91.  00:838D                      
      92.  00:838D  DD 21 F1 8E         				ld		ix,RELACION_TILES_B_PANTALLA_55
      93.  00:8391  C3 A9 83            				jp		.PINTURA_GLOBAL
      94.  00:8394                      
      95.  00:8394                      .PANTALLA64:
      96.  00:8394                      
      97.  00:8394  DD 21 5F 8F         				ld		ix,RELACION_TILES_B_PANTALLA_64
      98.  00:8398  C3 A9 83            				jp		.PINTURA_GLOBAL
      99.  00:839B                      
     100.  00:839B                      .PANTALLA66:
     101.  00:839B                      
     102.  00:839B  DD 21 69 8F         				ld		ix,RELACION_TILES_B_PANTALLA_66
     103.  00:839F  C3 A9 83            				jp		.PINTURA_GLOBAL
     104.  00:83A2                      
     105.  00:83A2                      .PANTALLA69:
     106.  00:83A2                      
     107.  00:83A2  DD 21 73 8F         				ld		ix,RELACION_TILES_B_PANTALLA_69
     108.  00:83A6  C3 A9 83            				jp		.PINTURA_GLOBAL
    3464   00:83A9                      
    3465   00:83A9                      .PINTURA_GLOBAL:
    3466   00:83A9                      
    3467   00:83A9  DD 7E 00            				ld		a,(ix)
    3468   00:83AC  47                  				ld		b,a
    3469   00:83AD                      				
    3470   00:83AD                      .bucle_cantidad_tiras:
    3471   00:83AD                      				
    3472   00:83AD  C5                  				push	bc
    3473   00:83AE  11 02 00            				ld		de,2
    3474   00:83B1  DD 19               				add		ix,de
    3475   00:83B3  DD 7E 00            				ld		a,(ix)
    3476   00:83B6  47                  				ld		b,a
    3477   00:83B7                      				
    3478   00:83B7  C5                  				push	bc
    3479   00:83B8  11 02 00            				ld		de,2
    3480   00:83BB  DD 19               				add		ix,de
    3481   00:83BD  1E 07               				ld		e,7
    3482   00:83BF  DD 6E 00            				ld		l,(ix)
    3483   00:83C2  DD 66 01            				ld		h,(ix+1)
    3484   00:83C5  CD F8 53            				call	G9kSetVramWrite
    3485   00:83C8  C1                  				pop		bc
    3486   00:83C9                      
    3487   00:83C9                      .bucle_cantidad_tiles_en_tira:
    3488   00:83C9                      
    3489   00:83C9  C5                  				push	bc
    3490   00:83CA  11 02 00            				ld		de,2
    3491   00:83CD  DD 19               				add		ix,de
    3492   00:83CF  DD 6E 00            				ld		l,(ix)
    3493   00:83D2  DD 66 01            				ld		h,(ix+1)
    3494   00:83D5  CD B9 55            				call	OUT_ESCRIBE_UN_BYTE
    3495   00:83D8  C1                  				pop		bc
    3496   00:83D9  10 EE               				djnz	.bucle_cantidad_tiles_en_tira
    3497   00:83DB  C1                  				pop		bc
    3498   00:83DC  10 CF               				djnz	.bucle_cantidad_tiras
    3499   00:83DE                      
    3500   00:83DE  C9                  				ret
    3501   00:83DF                      
    3502   00:83DF                      MIRA_QUE_HAY_ALREDEDOR_DEL_PROTA:
    3503   00:83DF                      
    3504   00:83DF                      				;	((((iy+(b?))/32)+1)*96)+((x+(c?))/32) + (y/8)*64+(x/8)
    3505   00:83DF                      
    3506   00:83DF  DD 21 17 8C         				ld		ix,POSICIONES_TYLES_ALREDEDOR
    3507   00:83E3  FD 21 F4 C0         				ld		iy,TYLE_POSIC_1
    3508   00:83E7  06 13               				ld		b,19
    3509   00:83E9                      
    3510   00:83E9                      .bucle:
    3511   00:83E9                      
    3512   00:83E9  C5                  				push	bc
    3513   00:83EA  DD 46 01            				ld		b,(ix+1)
    3514   00:83ED  DD 4E 00            				ld		c,(ix)
    3515   00:83F0  DD E5               				push	ix
    3516   00:83F2  FD E5               				push	iy
    3517   00:83F4  CD 0C 84            				call	.calculo
    3518   00:83F7  FD E1               				pop		iy
    3519   00:83F9  DD E1               				pop		ix
    3520   00:83FB  FD 72 01            				ld		(iy+1),d
    3521   00:83FE  FD 73 00            				ld		(iy),e
    3522   00:8401  11 02 00            				ld		de,2
    3523   00:8404  DD 19               				add		ix,de
    3524   00:8406  FD 19               				add		iy,de
    3525   00:8408  C1                  				pop		bc
    3526   00:8409  10 DE               				djnz	.bucle
    3527   00:840B  C9                  				ret
    3528   00:840C                      
    3529   00:840C                      .calculo:
    3530   00:840C                      
    3531   00:840C  CD 9D 81            				call	CALCULA_PANTALLA_EN_LA_QUE_ESTA
    3532   00:840F  CD B3 81            				call	SITUA_EL_PUNTERO_EN_EL_MAPA_SEGUN_PANTALLA
    3533   00:8412  FD 21 33 C0         				ld		iy,ATRIBUTOS_SPRITES
    3534   00:8416                      
    3535   00:8416  FD 7E 00            				ld		a,(iy)
    3536   00:8419  80                  				add		b
    3537   00:841A  47                  				ld		b,a
    3538   00:841B  E6 E0               				and		11100000b
    3539   00:841D  6F                  				ld		l,a
    3540   00:841E  26 00               				ld		h,0
    3541   00:8420  E5                  				push	hl
    3542   00:8421  D1                  				pop		de
    3543   00:8422  B7                  				or		a
    3544   00:8423  ED 5A ED 5A         [2]				adc		hl,de
    3545   00:8427                      
    3546   00:8427  FD 7E 02            				ld		a,(iy+2)
    3547   00:842A  81                  				add		c
    3548   00:842B  4F                  				ld		c,a
    3549   00:842C                      [5]				srl		a
    3549   00:842C  CB 3F CB 3F CB 3F CB 3F CB 3F 
    3550   00:8436  5F                  				ld		e,a
    3551   00:8437  16 00               				ld		d,0
    3552   00:8439  B7                  				or		a
    3553   00:843A  ED 5A               				adc		hl,de
    3554   00:843C                      
    3555   00:843C  E5                  				push	hl
    3556   00:843D  D1                  				pop		de
    3557   00:843E  DD 19               				add		ix,de
    3558   00:8440  DD 7E 00            				ld		a,(ix)
    3559   00:8443  32 D3 C0            				ld		(HYPERTILE_POSIC_1),a
    3560   00:8446                      
    3561   00:8446  DD 21 5B 90         				ld		ix,RELACION_TILE_HYPERTILE
    3562   00:844A  3A D3 C0            				ld		a,(HYPERTILE_POSIC_1)
    3563   00:844D  5F                  				ld		e,a
    3564   00:844E  16 00               				ld		d,0
    3565   00:8450  D5                  				push	de
    3566   00:8451  E1                  				pop		hl
    3567   00:8452  B7                  				or		a
    3568   00:8453  ED 5A               				adc		hl,de
    3569   00:8455  E5                  				push	hl
    3570   00:8456  D1                  				pop		de
    3571   00:8457  DD 19               				add		ix,de
    3572   00:8459                      
    3573   00:8459  FD 21 BB 9B         				ld		iy,HYPERTYLES
    3574   00:845D  DD 5E 00            				ld		e,(ix)
    3575   00:8460  DD 56 01            				ld		d,(ix+1)
    3576   00:8463  FD 19 FD 19         [2]				add		iy,de
    3577   00:8467                      
    3578   00:8467  78                  				ld		a,b
    3579   00:8468  E6 1F               				and		00011111b	
    3580   00:846A  CB 3F CB 3F CB 3F   [3]				srl		a
    3581   00:8470  5F                  				ld		e,a
    3582   00:8471  16 00               				ld		d,0
    3583   00:8473                      
    3584   00:8473  D5                  				push	de
    3585   00:8474  E1                  				pop		hl
    3586   00:8475  B7                  				or		a
    3587   00:8476                      [6]				adc		hl,hl
    3587   00:8476  ED 6A ED 6A ED 6A ED 6A ED 6A ED 6A 
    3588   00:8482                      
    3589   00:8482  79                  				ld		a,c
    3590   00:8483  E6 1F               				and		00011111b
    3591   00:8485  CB 3F CB 3F CB 3F   [3]				srl		a
    3592   00:848B  5F                  				ld		e,a
    3593   00:848C  16 00               				ld		d,0
    3594   00:848E  B7                  				or		a
    3595   00:848F  ED 5A ED 5A         [2]				adc		hl,de
    3596   00:8493                      
    3597   00:8493  E5                  				push	hl
    3598   00:8494  D1                  				pop		de
    3599   00:8495  FD 19               				add		iy,de
    3600   00:8497  FD 5E 00            				ld		e,(iy)
    3601   00:849A  FD 56 01            				ld		d,(iy+1)
    3602   00:849D  C9                  				ret
    3603   00:849E                      
    3604   00:849E                      COSAS_ESPECIALES_POR_PANTALLA:
    3605   00:849E                      
    3606   00:849E  DD 21 8B 8B         				ld		ix,RELACION_DE_EVENTOS_ESPECIALES_POR_PANTALLA
    3607   00:84A2  3A 0C C0            				ld		a,(PANTALLA_ACTUAL)
    3608   00:84A5  5F                  				ld		e,a
    3609   00:84A6  16 00               				ld		d,0
    3610   00:84A8  DD 19 DD 19         [2]				add		ix,de
    3611   00:84AC  DD 6E 00            				ld		l,(ix)
    3612   00:84AF  DD 66 01            				ld		h,(ix+1)
    3613   00:84B2  E9                  				jp		hl
    3614   00:84B3                      
    3615   00:84B3                      INICIO_PANTALLA_00:
    3616   00:84B3                      
    3617   00:84B3  3A D9 C0            			ld	a,(PARAGUAS)
    3618   00:84B6  B7                  			or	a
    3619   00:84B7  C0                  			ret	nz
    3620   00:84B8                      
    3621   00:84B8  C3 42 86            			jp	DA_ATRIBUTOS_OBJETO
    3622   00:84BB                      
    3623   00:84BB                      INICIO_PANTALLA_01:
    3624   00:84BB                      INICIO_PANTALLA_02:
    3625   00:84BB                      
    3626   00:84BB  C9                  			ret
    3627   00:84BC                      INICIO_PANTALLA_03:
    3628   00:84BC                      
    3629   00:84BC                      			; Si entra por abajo, poner el globo con x de deph
    3630   00:84BC                      
    3631   00:84BC  DD 21 33 C0         			ld  	ix,ATRIBUTOS_SPRITES
    3632   00:84C0  DD 7E 00            			ld		a,(ix)
    3633   00:84C3  FE 40               			cp		#40
    3634   00:84C5  D8                  			ret		c
    3635   00:84C6                      
    3636   00:84C6  DD 21 73 C0         			ld		ix,ATRIBUTOS_SPRITES+64
    3637   00:84CA  DD 7E C2            			ld		a,(ix-62)
    3638   00:84CD  CD F6 50            			call	COMUN_X_CUATRO_SPRITES
    3639   00:84D0  DD 7E C0            			ld		a,(ix-64)
    3640   00:84D3  D6 10               			sub		16
    3641   00:84D5  CD 06 51            			call	COMUN_Y_CUATRO_SPRITES
    3642   00:84D8  3E E4               			ld		a,228
    3643   00:84DA  CD 16 51            			call	COMUN_PATRON_CUATRO_SPRITES
    3644   00:84DD  3E 20               			ld		a,00100000b
    3645   00:84DF  CD 27 51            			call	COMUN_ATRIBUTOS_CUATRO_SPRITES
    3646   00:84E2                      
    3647   00:84E2                      
    3648   00:84E2  DD 21 83 C0         			ld		ix,ATRIBUTOS_SPRITES+80
    3649   00:84E6  DD 7E B2            			ld		a,(ix-78)
    3650   00:84E9  CD F6 50            			call	COMUN_X_CUATRO_SPRITES
    3651   00:84EC  DD 7E B0            			ld		a,(ix-80)
    3652   00:84EF  CD 06 51            			call	COMUN_Y_CUATRO_SPRITES
    3653   00:84F2  3E E2               			ld		a,226
    3654   00:84F4  CD 16 51            			call	COMUN_PATRON_CUATRO_SPRITES
    3655   00:84F7  3E 20               			ld		a,00100000b
    3656   00:84F9  CD 27 51            			call	COMUN_ATRIBUTOS_CUATRO_SPRITES
    3657   00:84FC  C9                  			ret
    3658   00:84FD                      
    3659   00:84FD                      INICIO_PANTALLA_04:
    3660   00:84FD                      
    3661   00:84FD  3A E9 C0            			ld	a,(ANTI_RADIA)
    3662   00:8500  B7                  			or	a
    3663   00:8501  C0                  			ret	nz
    3664   00:8502                      
    3665   00:8502  C3 42 86            			jp	DA_ATRIBUTOS_OBJETO
    3666   00:8505                      
    3667   00:8505                      INICIO_PANTALLA_05:
    3668   00:8505                      INICIO_PANTALLA_06:
    3669   00:8505  C9                  			ret
    3670   00:8506                      INICIO_PANTALLA_07:
    3671   00:8506                      
    3672   00:8506  3A EF C0            			ld	a,(POLVORA_MEDIA)
    3673   00:8509  B7                  			or	a
    3674   00:850A  C0                  			ret	nz
    3675   00:850B                      
    3676   00:850B  C3 42 86            			jp	DA_ATRIBUTOS_OBJETO
    3677   00:850E                      
    3678   00:850E                      INICIO_PANTALLA_08:
    3679   00:850E                      
    3680   00:850E  3A DE C0            			ld	a,(PUENTE_EXP)
    3681   00:8511  B7                  			or	a
    3682   00:8512  C0                  			ret	nz
    3683   00:8513                      
    3684   00:8513  C3 42 86            			jp	DA_ATRIBUTOS_OBJETO
    3685   00:8516                      
    3686   00:8516                      INICIO_PANTALLA_09:
    3687   00:8516                      
    3688   00:8516  3A DA C0            			ld	a,(MANIFIESTO)
    3689   00:8519  B7                  			or	a
    3690   00:851A  C0                  			ret	nz
    3691   00:851B                      
    3692   00:851B  C3 42 86            			jp	DA_ATRIBUTOS_OBJETO
    3693   00:851E                      
    3694   00:851E                      INICIO_PANTALLA_10:
    3695   00:851E                      
    3696   00:851E  3A E0 C0            			ld	a,(BARRA_PLATA)
    3697   00:8521  B7                  			or	a
    3698   00:8522  C0                  			ret	nz
    3699   00:8523                      
    3700   00:8523  C3 42 86            			jp	DA_ATRIBUTOS_OBJETO
    3701   00:8526                      
    3702   00:8526                      INICIO_PANTALLA_11:
    3703   00:8526                      
    3704   00:8526  3A D4 C0            			ld	a,(MONOCICLO)
    3705   00:8529  B7                  			or	a
    3706   00:852A  C0                  			ret	nz
    3707   00:852B                      
    3708   00:852B  C3 42 86            			jp	DA_ATRIBUTOS_OBJETO
    3709   00:852E                      
    3710   00:852E                      INICIO_PANTALLA_12:
    3711   00:852E                      
    3712   00:852E  3A D6 C0            			ld	a,(PELOTA)
    3713   00:8531  B7                  			or	a
    3714   00:8532  C0                  			ret	nz
    3715   00:8533                      
    3716   00:8533  C3 42 86            			jp	DA_ATRIBUTOS_OBJETO
    3717   00:8536                      
    3718   00:8536                      INICIO_PANTALLA_13:
    3719   00:8536                      INICIO_PANTALLA_14:
    3720   00:8536  C9                  			ret
    3721   00:8537                      INICIO_PANTALLA_15:
    3722   00:8537                      
    3723   00:8537  CD 42 86            			call 	DA_ATRIBUTOS_OBJETO
    3724   00:853A                      
    3725   00:853A  C3 34 86            			jp		DA_ATRIBUTOS_OBJETO_SECUNDARIO
    3726   00:853D                      
    3727   00:853D                      INICIO_PANTALLA_16:
    3728   00:853D                      
    3729   00:853D  AF                  			xor		a
    3730   00:853E  32 28 C0            			ld		(QUIERE_CUERDA),a
    3731   00:8541                      
    3732   00:8541  21 D0 C7            			ld		hl,#c750+#80
    3733   00:8544  22 29 C0            			ld		(CUERDA_PINTANDO),hl
    3734   00:8547                      
    3735   00:8547  3A DB C0            			ld		a,(SOPLADOR)
    3736   00:854A  B7                  			or		a
    3737   00:854B  C2 51 85            			jp		nz,.MIRAMOS_SEGUNDO_OBJETO
    3738   00:854E                      
    3739   00:854E  CD 42 86            			call 	DA_ATRIBUTOS_OBJETO
    3740   00:8551                      
    3741   00:8551                      .MIRAMOS_SEGUNDO_OBJETO
    3742   00:8551                      
    3743   00:8551  3A D7 C0            			ld		a,(ESPUELA)
    3744   00:8554  B7                  			or		a
    3745   00:8555  C0                  			ret		nz
    3746   00:8556  C3 34 86            			jp		DA_ATRIBUTOS_OBJETO_SECUNDARIO
    3747   00:8559                      			
    3748   00:8559                      INICIO_PANTALLA_17:
    3749   00:8559                      INICIO_PANTALLA_18:
    3750   00:8559                      INICIO_PANTALLA_19:
    3751   00:8559                      
    3752   00:8559  C9                  			ret
    3753   00:855A                      
    3754   00:855A                      INICIO_PANTALLA_20:
    3755   00:855A                      
    3756   00:855A  3A DD C0            			ld	a,(ASPIRADORA)
    3757   00:855D  B7                  			or	a
    3758   00:855E  C0                  			ret	nz
    3759   00:855F                      
    3760   00:855F  C3 42 86            			jp	DA_ATRIBUTOS_OBJETO
    3761   00:8562                      
    3762   00:8562                      INICIO_PANTALLA_21:
    3763   00:8562                      
    3764   00:8562  C9                  			ret
    3765   00:8563                      INICIO_PANTALLA_22:
    3766   00:8563                      
    3767   00:8563  3A DF C0            			ld	a,(FLAUTA)
    3768   00:8566  B7                  			or	a
    3769   00:8567  C0                  			ret	nz
    3770   00:8568                      
    3771   00:8568  C3 42 86            			jp	DA_ATRIBUTOS_OBJETO
    3772   00:856B                      
    3773   00:856B                      INICIO_PANTALLA_23:
    3774   00:856B                      INICIO_PANTALLA_24:
    3775   00:856B                      INICIO_PANTALLA_25:
    3776   00:856B                      INICIO_PANTALLA_26:
    3777   00:856B                      INICIO_PANTALLA_27:
    3778   00:856B  C9                  			ret
    3779   00:856C                      INICIO_PANTALLA_28:
    3780   00:856C                      
    3781   00:856C  3A 28 C0            			ld		a,(QUIERE_CUERDA)
    3782   00:856F  FE 02               			cp		2
    3783   00:8571  C2 A0 85            			jp		nz,.UNO
    3784   00:8574                      
    3785   00:8574  06 0C               			ld		b,12
    3786   00:8576  21 10 00            			ld		hl,#010
    3787   00:8579  ED 5B 14 C0         			ld		de,(BYTE_VRAM_EMPIEZA_HL)
    3788   00:857D  B7                  			or		a
    3789   00:857E  ED 5A               			adc		hl,de
    3790   00:8580  1E 07               			ld		e,7
    3791   00:8582  CD F8 53            			call	G9kSetVramWrite
    3792   00:8585                      
    3793   00:8585                      .bucle_cuerda:
    3794   00:8585                      
    3795   00:8585  E5                  			push	hl
    3796   00:8586  21 3E 02            			ld		hl,574
    3797   00:8589  CD B9 55            			call	OUT_ESCRIBE_UN_BYTE
    3798   00:858C  21 3F 02            			ld		hl,575
    3799   00:858F  CD B9 55            			call	OUT_ESCRIBE_UN_BYTE
    3800   00:8592  E1                  			pop		hl
    3801   00:8593  11 80 00            			ld		de,32*2*2
    3802   00:8596  B7                  			or		a
    3803   00:8597  ED 5A               			adc		hl,de
    3804   00:8599  1E 07               			ld		e,7
    3805   00:859B  CD F8 53            			call	G9kSetVramWrite
    3806   00:859E  10 E5               			djnz	.bucle_cuerda
    3807   00:85A0                      
    3808   00:85A0                      .UNO:
    3809   00:85A0                      
    3810   00:85A0  AF                  			xor	a
    3811   00:85A1  32 27 C0            			ld	(SALTO_COLCHONETA),a
    3812   00:85A4                      
    3813   00:85A4  3A E7 C0            			ld	a,(TRAMPOLIN)
    3814   00:85A7  B7                  			or	a
    3815   00:85A8  C0                  			ret	nz
    3816   00:85A9                      
    3817   00:85A9  C3 42 86            			jp	DA_ATRIBUTOS_OBJETO
    3818   00:85AC                      
    3819   00:85AC                      INICIO_PANTALLA_29:
    3820   00:85AC                      
    3821   00:85AC  AF                  			xor		a
    3822   00:85AD  32 2B C0            			ld		(ANIM_CAN),a
    3823   00:85B0                      
    3824   00:85B0  3A DC C0            			ld		a,(CANON)
    3825   00:85B3  B7                  			or		a
    3826   00:85B4  C2 BA 85            			jp		nz,.MIRAMOS_SEGUNDO_OBJETO
    3827   00:85B7                      
    3828   00:85B7  CD 42 86            			call 	DA_ATRIBUTOS_OBJETO
    3829   00:85BA                      
    3830   00:85BA                      .MIRAMOS_SEGUNDO_OBJETO
    3831   00:85BA                      
    3832   00:85BA  3A F0 C0            			ld		a,(POLVORA_GRAND)
    3833   00:85BD  B7                  			or		a
    3834   00:85BE  C0                  			ret		nz
    3835   00:85BF  C3 34 86            			jp		DA_ATRIBUTOS_OBJETO_SECUNDARIO
    3836   00:85C2                      			
    3837   00:85C2                      INICIO_PANTALLA_30:
    3838   00:85C2                      INICIO_PANTALLA_31:
    3839   00:85C2                      INICIO_PANTALLA_32:
    3840   00:85C2  C9                  			ret
    3841   00:85C3                      INICIO_PANTALLA_33:
    3842   00:85C3                      
    3843   00:85C3  3A EE C0            			ld	a,(POLVORA_PEQUE)
    3844   00:85C6  B7                  			or	a
    3845   00:85C7  C0                  			ret	nz
    3846   00:85C8                      
    3847   00:85C8  C3 42 86            			jp	DA_ATRIBUTOS_OBJETO
    3848   00:85CB                      
    3849   00:85CB                      INICIO_PANTALLA_34:
    3850   00:85CB                      
    3851   00:85CB  3A D5 C0            			ld	a,(FLASH)
    3852   00:85CE  B7                  			or	a
    3853   00:85CF  C0                  			ret	nz
    3854   00:85D0                      
    3855   00:85D0  C3 42 86            			jp	DA_ATRIBUTOS_OBJETO
    3856   00:85D3                      
    3857   00:85D3                      INICIO_PANTALLA_35:
    3858   00:85D3                      INICIO_PANTALLA_36:
    3859   00:85D3                      INICIO_PANTALLA_37:
    3860   00:85D3                      INICIO_PANTALLA_38:
    3861   00:85D3  C9                  			ret
    3862   00:85D4                      INICIO_PANTALLA_39:
    3863   00:85D4                      
    3864   00:85D4  3A E3 C0            			ld	a,(MANIBELA)
    3865   00:85D7  B7                  			or	a
    3866   00:85D8  C0                  			ret	nz
    3867   00:85D9                      
    3868   00:85D9  C3 42 86            			jp	DA_ATRIBUTOS_OBJETO
    3869   00:85DC                      
    3870   00:85DC                      INICIO_PANTALLA_40:
    3871   00:85DC                      
    3872   00:85DC  3A E2 C0            			ld	a,(FORMULA)
    3873   00:85DF  B7                  			or	a
    3874   00:85E0  C0                  			ret	nz
    3875   00:85E1                      
    3876   00:85E1  C3 42 86            			jp	DA_ATRIBUTOS_OBJETO
    3877   00:85E4                      
    3878   00:85E4                      INICIO_PANTALLA_41:
    3879   00:85E4  C9                  			ret
    3880   00:85E5                      INICIO_PANTALLA_42:
    3881   00:85E5                      
    3882   00:85E5  3A D8 C0            			ld	a,(BARRIL)
    3883   00:85E8  B7                  			or	a
    3884   00:85E9  C0                  			ret	nz
    3885   00:85EA                      
    3886   00:85EA  C3 42 86            			jp	DA_ATRIBUTOS_OBJETO
    3887   00:85ED                      
    3888   00:85ED                      INICIO_PANTALLA_43:
    3889   00:85ED  C9                  			ret
    3890   00:85EE                      INICIO_PANTALLA_44:
    3891   00:85EE                      
    3892   00:85EE  3A EB C0            			ld	a,(CRISTAL_ENER)
    3893   00:85F1  B7                  			or	a
    3894   00:85F2  C0                  			ret	nz
    3895   00:85F3                      
    3896   00:85F3  C3 42 86            			jp	DA_ATRIBUTOS_OBJETO
    3897   00:85F6                      
    3898   00:85F6                      INICIO_PANTALLA_45:
    3899   00:85F6                      INICIO_PANTALLA_46:
    3900   00:85F6                      INICIO_PANTALLA_47:
    3901   00:85F6                      INICIO_PANTALLA_48:
    3902   00:85F6  C9                  			ret
    3903   00:85F7                      INICIO_PANTALLA_49:
    3904   00:85F7                      
    3905   00:85F7  3A E6 C0            			ld	a,(PERCHA)
    3906   00:85FA  B7                  			or	a
    3907   00:85FB  C0                  			ret	nz
    3908   00:85FC                      
    3909   00:85FC  C3 42 86            			jp	DA_ATRIBUTOS_OBJETO
    3910   00:85FF                      
    3911   00:85FF                      INICIO_PANTALLA_50:
    3912   00:85FF  C9                  			ret
    3913   00:8600                      INICIO_PANTALLA_51:
    3914   00:8600                      
    3915   00:8600  3A E1 C0            			ld	a,(PROPULSOR)
    3916   00:8603  B7                  			or	a
    3917   00:8604  C0                  			ret	nz
    3918   00:8605                      
    3919   00:8605  C3 42 86            			jp	DA_ATRIBUTOS_OBJETO
    3920   00:8608                      
    3921   00:8608                      INICIO_PANTALLA_52:
    3922   00:8608                      
    3923   00:8608  3A E5 C0            			ld	a,(BATERIA)
    3924   00:860B  B7                  			or	a
    3925   00:860C  C0                  			ret	nz
    3926   00:860D                      
    3927   00:860D  C3 42 86            			jp	DA_ATRIBUTOS_OBJETO
    3928   00:8610                      
    3929   00:8610                      INICIO_PANTALLA_53:
    3930   00:8610                      INICIO_PANTALLA_54:
    3931   00:8610                      INICIO_PANTALLA_55:
    3932   00:8610                      INICIO_PANTALLA_56:
    3933   00:8610                      INICIO_PANTALLA_57:
    3934   00:8610                      INICIO_PANTALLA_58:
    3935   00:8610                      INICIO_PANTALLA_59:
    3936   00:8610  C9                  			ret
    3937   00:8611                      INICIO_PANTALLA_60:
    3938   00:8611                      
    3939   00:8611  3A E8 C0            			ld	a,(PILA_ATOMICA)
    3940   00:8614  B7                  			or	a
    3941   00:8615  C0                  			ret	nz
    3942   00:8616                      
    3943   00:8616  C3 42 86            			jp	DA_ATRIBUTOS_OBJETO
    3944   00:8619                      
    3945   00:8619                      INICIO_PANTALLA_61:
    3946   00:8619                      INICIO_PANTALLA_62:
    3947   00:8619  C9                  			ret
    3948   00:861A                      INICIO_PANTALLA_63:
    3949   00:861A                      
    3950   00:861A  3A F2 C0            			ld	a,(CESTO)
    3951   00:861D  B7                  			or	a
    3952   00:861E  C0                  			ret	nz
    3953   00:861F                      
    3954   00:861F  C3 42 86            			jp	DA_ATRIBUTOS_OBJETO
    3955   00:8622                      
    3956   00:8622                      INICIO_PANTALLA_64:
    3957   00:8622                      INICIO_PANTALLA_65:
    3958   00:8622  C9                  			ret
    3959   00:8623                      INICIO_PANTALLA_66:
    3960   00:8623                      
    3961   00:8623  3A E4 C0            			ld	a,(BOTON)
    3962   00:8626  B7                  			or	a
    3963   00:8627  C0                  			ret	nz
    3964   00:8628                      
    3965   00:8628  C3 42 86            			jp	DA_ATRIBUTOS_OBJETO
    3966   00:862B                      
    3967   00:862B                      INICIO_PANTALLA_67:
    3968   00:862B                      INICIO_PANTALLA_68:
    3969   00:862B  C9                  			ret
    3970   00:862C                      INICIO_PANTALLA_69:
    3971   00:862C                      
    3972   00:862C  3A EA C0            			ld	a,(TAZA_TE)
    3973   00:862F  B7                  			or	a
    3974   00:8630  C0                  			ret	nz
    3975   00:8631                      
    3976   00:8631  C3 42 86            			jp	DA_ATRIBUTOS_OBJETO
    3977   00:8634                      
    3978   00:8634                      DA_ATRIBUTOS_OBJETO_SECUNDARIO:
    3979   00:8634                      
    3980   00:8634  DD 21 33 C0         			ld	ix,ATRIBUTOS_SPRITES
    3981   00:8638  FD 21 B9 8A         			ld	iy,RELACION_POSICIONES_OBJETOS_2
    3982   00:863C  11 50 00            			ld	de,80
    3983   00:863F  C3 4D 86            			jp	DA_ATRIBUTOS_COMUN
    3984   00:8642                      			
    3985   00:8642                      DA_ATRIBUTOS_OBJETO:
    3986   00:8642                      	
    3987   00:8642  DD 21 33 C0         			ld	ix,ATRIBUTOS_SPRITES
    3988   00:8646  FD 21 E7 89         			ld	iy,RELACION_POSICIONES_OBJETOS
    3989   00:864A  11 40 00            			ld	de,64
    3990   00:864D                      
    3991   00:864D                      DA_ATRIBUTOS_COMUN:
    3992   00:864D                      
    3993   00:864D  DD 19               			add		ix,de
    3994   00:864F  ED 5B 0C C0         			ld		de,(PANTALLA_ACTUAL)
    3995   00:8653  FD 19 FD 19 FD 19   [3]			add		iy,de
    3996   00:8659                      
    3997   00:8659  FD 7E 00            			ld		a,(iy)
    3998   00:865C  CD 06 51            			call	COMUN_Y_CUATRO_SPRITES
    3999   00:865F  FD 7E 01            			ld		a,(iy+1)
    4000   00:8662  CD 16 51            			call	COMUN_PATRON_CUATRO_SPRITES
    4001   00:8665  FD 7E 02            			ld		a,(iy+2)
    4002   00:8668  F5                  			push	af
    4003   00:8669  CD F6 50            			call	COMUN_X_CUATRO_SPRITES
    4004   00:866C  F1                  			pop		af
    4005   00:866D  3A 0C C0            			ld		a,(PANTALLA_ACTUAL)
    4006   00:8670  FE 08               			cp		8
    4007   00:8672  CA 7A 86            			jp		z,.atributos_1
    4008   00:8675  FE 0C               			cp		12
    4009   00:8677  C2 87 86            			jp		nz,.atributos_2
    4010   00:867A                      
    4011   00:867A                      .atributos_1:
    4012   00:867A                      
    4013   00:867A  3E 10               			ld		a,00010000b
    4014   00:867C  DD 77 03            			ld		(ix+3),a
    4015   00:867F  DD 77 07            			ld		(ix+7),a
    4016   00:8682  3E 00               			ld		a,00000000b
    4017   00:8684  C3 2D 51            			jp		COMUN_ATRIBUTOS_CUATRO_SPRITES.solo_dos			
    4018   00:8687                      .atributos_2:			
    4019   00:8687  3E 00               			ld		a,00000000b
    4020   00:8689  CD 27 51            			call	COMUN_ATRIBUTOS_CUATRO_SPRITES
    4021   00:868C                      
    4022   00:868C  C9                  			ret
    4023   00:868D                      
    4024   00:868D                      ORGANIZA_OBJETOS:
    4025   00:868D                      
    4026   00:868D                      .BUSCAMOS_EL_OBJETO_COGIDO:
    4027   00:868D                      
    4028   00:868D  DD 21 D4 C0         			ld		ix,MONOCICLO
    4029   00:8691  0E 00               			ld		c,0
    4030   00:8693                      
    4031   00:8693                      .bucle_busqueda_1:
    4032   00:8693                      
    4033   00:8693  DD 7E 00            			ld		a,(ix)
    4034   00:8696  FE 01               			cp		1
    4035   00:8698  CA A5 86            			jp		Z,.BUSCAMOS_EL_OBJETO_EN_USO
    4036   00:869B                      
    4037   00:869B  11 01 00            			ld		de,1
    4038   00:869E  DD 19               			add		ix,de
    4039   00:86A0  0C                  			inc		c
    4040   00:86A1  C3 93 86            			jp		.bucle_busqueda_1
    4041   00:86A4                      
    4042   00:86A4  C9                  			ret
    4043   00:86A5                      
    4044   00:86A5                      .BUSCAMOS_EL_OBJETO_EN_USO:
    4045   00:86A5                      
    4046   00:86A5  06 00               			ld		b,0
    4047   00:86A7  C5                  			push	bc
    4048   00:86A8  DD 21 D4 C0         			ld		ix,MONOCICLO
    4049   00:86AC  0E 00               			ld		c,0
    4050   00:86AE                      
    4051   00:86AE                      .bucle_busqueda_2:
    4052   00:86AE                      
    4053   00:86AE  DD 7E 00            			ld		a,(ix)
    4054   00:86B1  FE 02               			cp		2
    4055   00:86B3  CA C4 86            			jp		Z,.BUSCAMOS_ESPACIO_LIBRE
    4056   00:86B6                      
    4057   00:86B6  11 01 00            			ld		de,1
    4058   00:86B9  DD 19               			add		ix,de
    4059   00:86BB  0C                  			inc		c
    4060   00:86BC                      
    4061   00:86BC  3E 1F               			ld		a,31
    4062   00:86BE  B9                  			cp		c
    4063   00:86BF  C2 AE 86            			jp		nz,.bucle_busqueda_2
    4064   00:86C2                      
    4065   00:86C2  0E 1F               			ld		c,31
    4066   00:86C4                      
    4067   00:86C4                      .BUSCAMOS_ESPACIO_LIBRE:
    4068   00:86C4                      
    4069   00:86C4  06 00               			ld		b,0
    4070   00:86C6  C5                  			push	bc
    4071   00:86C7  DD 21 D4 C0         			ld		ix,MONOCICLO
    4072   00:86CB  0E 03               			ld		c,3
    4073   00:86CD                      
    4074   00:86CD                      .bucle_busqueda_3:
    4075   00:86CD                      
    4076   00:86CD  DD 7E 00            			ld		a,(ix)
    4077   00:86D0  B9                  			cp		c
    4078   00:86D1  CA E3 86            			jp		z,.resetea
    4079   00:86D4                      
    4080   00:86D4  11 01 00            			ld		de,1
    4081   00:86D7  DD 19               			add		ix,de
    4082   00:86D9  04                  			inc		b
    4083   00:86DA                      
    4084   00:86DA  78                  			ld		a,b
    4085   00:86DB  FE 1F               			cp		31
    4086   00:86DD  CA F6 86            			jp		z,.ENCONTRADO
    4087   00:86E0  C3 CD 86            			jp		.bucle_busqueda_3
    4088   00:86E3                      
    4089   00:86E3                      .resetea:
    4090   00:86E3                      
    4091   00:86E3  DD 21 D4 C0         			ld		ix,MONOCICLO
    4092   00:86E7  0C                  			inc		c
    4093   00:86E8  06 00               			ld		b,0
    4094   00:86EA  79                  			ld		a,c
    4095   00:86EB  FE 22               			cp		34
    4096   00:86ED  CA F3 86            			jp		z,.ENCONTRADO_POST
    4097   00:86F0  C3 CD 86            			jp		.bucle_busqueda_3
    4098   00:86F3                      
    4099   00:86F3                      .ENCONTRADO_POST:
    4100   00:86F3                      
    4101   00:86F3  E5                  			push	hl
    4102   00:86F4  E5                  			push	hl
    4103   00:86F5  C9                  			ret
    4104   00:86F6                      
    4105   00:86F6                      .ENCONTRADO:
    4106   00:86F6                      
    4107   00:86F6  79                  			ld		a,c
    4108   00:86F7  D1                  			pop		de
    4109   00:86F8  DD 21 D4 C0         			ld		ix,MONOCICLO
    4110   00:86FC  DD 19               			add		ix,de
    4111   00:86FE  DD 77 00            			ld		(ix),a
    4112   00:8701  DD 21 D4 C0         			ld		ix,MONOCICLO
    4113   00:8705  D1                  			pop		de
    4114   00:8706  DD 19               			add		ix,de
    4115   00:8708  3E 02               			ld		a,2
    4116   00:870A  DD 77 00            			ld		(ix),a
    4117   00:870D                      
    4118   00:870D  C9                  			ret
    4119   00:870E                      
    4120   00:870E                      COLOCA_OBJETOS_BOLSILLO_Y_USANDO:
    4121   00:870E                      
    4122   00:870E  1E 03               			ld		e,3
    4123   00:8710  21 80 FF            			ld		hl,#fe00+4*6*16
    4124   00:8713  CD F8 53            			call	G9kSetVramWrite
    4125   00:8716                      
    4126   00:8716  DD 21 D4 C0         			ld		ix,MONOCICLO
    4127   00:871A  06 00               			ld		b,0
    4128   00:871C                      
    4129   00:871C                      .bucle_busca_objeto_usando:
    4130   00:871C                      
    4131   00:871C  DD 7E 00            			ld		a,(ix)
    4132   00:871F  FE 02               			cp		2
    4133   00:8721  C2 41 87            			jp		nz,.bucle_sigue_usando;.pintamos_el_objeto_usando
    4134   00:8724                      
    4135   00:8724  58                  			ld		e,b
    4136   00:8725  16 00               			ld		d,0
    4137   00:8727  DD 21 3B 89         			ld		ix,RELACION_POSICIONES_SPRITES_OBJETOS
    4138   00:872B  DD 19               			add		ix,de
    4139   00:872D                      
    4140   00:872D  DD 7E 00            			ld		a,(ix)
    4141   00:8730  F5                  			push	af
    4142   00:8731                      
    4143   00:8731  DD 21 93 C0         			ld		ix,ATRIBUTOS_USANDO
    4144   00:8735                      
    4145   00:8735  3E 91               			ld		a,145
    4146   00:8737  C1                  			pop		bc
    4147   00:8738  48                  			ld		c,b
    4148   00:8739  06 8A               			ld		b,138
    4149   00:873B  CD 0D 88            			call	.prepara_atributos
    4150   00:873E  C3 56 87            			jp		.bolsillos
    4151   00:8741                      			
    4152   00:8741                      .bucle_sigue_usando:
    4153   00:8741                      
    4154   00:8741  11 01 00            			ld		de,1
    4155   00:8744  DD 19               			add		ix,de
    4156   00:8746  04                  			inc		b
    4157   00:8747  3E 1F               			ld		a,31
    4158   00:8749  B8                  			cp		b
    4159   00:874A  C2 1C 87            			jp		nz,.bucle_busca_objeto_usando
    4160   00:874D                      
    4161   00:874D  DD 21 93 C0         			ld		ix,ATRIBUTOS_USANDO
    4162   00:8751  3E DC               			ld		a,220
    4163   00:8753  CD 0D 88            			call	.prepara_atributos
    4164   00:8756                      
    4165   00:8756                      .bolsillos:
    4166   00:8756                      
    4167   00:8756                      .bolsillo_A:
    4168   00:8756                      
    4169   00:8756  3A 2F C0            			ld		a,(POSICION_BOLSILLO)
    4170   00:8759  0E 03               			ld		c,3
    4171   00:875B  81                  			add		c
    4172   00:875C  CD 03 88            			call	.bolsillo_cont2
    4173   00:875F                      
    4174   00:875F                      .bucle_objetos_de_bolsillo_a:
    4175   00:875F                      
    4176   00:875F  DD 7E 00            			ld		a,(ix)
    4177   00:8762  B9                  			cp		c
    4178   00:8763  C2 77 87            			jp		nz,.bucle_sigue_a
    4179   00:8766                      
    4180   00:8766  CD E1 87            			call	.prepara_relacion_posiciones_sprites
    4181   00:8769  DD 21 A3 C0         			ld		ix,ATRIBUTOS_BOLSI_A
    4182   00:876D  3E 91               			ld		a,145
    4183   00:876F  06 AA               			ld		b,170
    4184   00:8771  CD 0D 88            			call	.prepara_atributos
    4185   00:8774  C3 88 87            			jp		.bolsillo_B
    4186   00:8777                      
    4187   00:8777                      .bucle_sigue_a:
    4188   00:8777                      
    4189   00:8777  2C                  			inc		l
    4190   00:8778  11 01 00            			ld		de,1
    4191   00:877B  DD 19               			add		ix,de
    4192   00:877D  10 E0               			djnz	.bucle_objetos_de_bolsillo_a
    4193   00:877F                      
    4194   00:877F  DD 21 A3 C0         			ld		ix,ATRIBUTOS_BOLSI_A
    4195   00:8783  3E DC               			ld		a,220
    4196   00:8785  CD 0D 88            			call	.prepara_atributos
    4197   00:8788                      
    4198   00:8788                      .bolsillo_B:
    4199   00:8788                      
    4200   00:8788                      .bolsillo_b_inicia:
    4201   00:8788                      
    4202   00:8788  0E 04               			ld		c,4
    4203   00:878A  CD EE 87            			call	.bolsillo_prepara
    4204   00:878D                      
    4205   00:878D                      .bucle_objetos_de_bolsillo_b:
    4206   00:878D                      
    4207   00:878D  DD 7E 00            			ld		a,(ix)
    4208   00:8790  B9                  			cp		c
    4209   00:8791  C2 A5 87            			jp		nz,.bucle_sigue_b
    4210   00:8794                      
    4211   00:8794  CD E1 87            			call	.prepara_relacion_posiciones_sprites
    4212   00:8797  DD 21 B3 C0         			ld		ix,ATRIBUTOS_BOLSI_B
    4213   00:879B  3E 91               			ld		a,145
    4214   00:879D  06 C3               			ld		b,195
    4215   00:879F  CD 0D 88            			call	.prepara_atributos
    4216   00:87A2  C3 B6 87            			jp		.bolsillo_C
    4217   00:87A5                      
    4218   00:87A5                      .bucle_sigue_b:
    4219   00:87A5                      
    4220   00:87A5  2C                  			inc		l
    4221   00:87A6  11 01 00            			ld		de,1
    4222   00:87A9  DD 19               			add		ix,de
    4223   00:87AB  10 E0               			djnz	.bucle_objetos_de_bolsillo_b
    4224   00:87AD                      
    4225   00:87AD  DD 21 B3 C0         			ld		ix,ATRIBUTOS_BOLSI_B
    4226   00:87B1  3E DC               			ld		a,220
    4227   00:87B3  CD 0D 88            			call	.prepara_atributos
    4228   00:87B6                      
    4229   00:87B6                      .bolsillo_C:
    4230   00:87B6                      
    4231   00:87B6  0E 05               			ld		c,5
    4232   00:87B8  CD EE 87            			call	.bolsillo_prepara
    4233   00:87BB                      
    4234   00:87BB                      .bucle_objetos_de_bolsillo_c:
    4235   00:87BB                      
    4236   00:87BB  DD 7E 00            			ld		a,(ix)
    4237   00:87BE  B9                  			cp		c
    4238   00:87BF  C2 D0 87            			jp		nz,.bucle_sigue_c
    4239   00:87C2                      
    4240   00:87C2  CD E1 87            			call	.prepara_relacion_posiciones_sprites
    4241   00:87C5  DD 21 C3 C0         			ld		ix,ATRIBUTOS_BOLSI_C
    4242   00:87C9  3E 91               			ld		a,145
    4243   00:87CB  06 DC               			ld		b,220
    4244   00:87CD  C3 0D 88            			jp		.prepara_atributos
    4245   00:87D0                      
    4246   00:87D0                      .bucle_sigue_c:
    4247   00:87D0                      
    4248   00:87D0  2C                  			inc		l
    4249   00:87D1  11 01 00            			ld		de,1
    4250   00:87D4  DD 19               			add		ix,de
    4251   00:87D6  10 E3               			djnz	.bucle_objetos_de_bolsillo_c
    4252   00:87D8                      
    4253   00:87D8  DD 21 C3 C0         			ld		ix,ATRIBUTOS_BOLSI_C
    4254   00:87DC  3E DC               			ld		a,220
    4255   00:87DE  C3 0D 88            			jp		.prepara_atributos
    4256   00:87E1                      
    4257   00:87E1                      .prepara_relacion_posiciones_sprites:
    4258   00:87E1                      
    4259   00:87E1  5D                  			ld		e,l
    4260   00:87E2  16 00               			ld		d,0
    4261   00:87E4  DD 21 3B 89         			ld		ix,RELACION_POSICIONES_SPRITES_OBJETOS
    4262   00:87E8  DD 19               			add		ix,de
    4263   00:87EA  DD 4E 00            			ld		c,(ix)
    4264   00:87ED  C9                  			ret
    4265   00:87EE                      
    4266   00:87EE                      .bolsillo_prepara:
    4267   00:87EE                      
    4268   00:87EE  3A 2F C0            			ld		a,(POSICION_BOLSILLO)
    4269   00:87F1  81                  			add		c
    4270   00:87F2                      
    4271   00:87F2  FE 23               			cp		35
    4272   00:87F4  C2 FC 87            			jp		nz,.bolsillo_cont1
    4273   00:87F7  3E 03               			ld		a,3
    4274   00:87F9  C3 03 88            			jp		.bolsillo_cont2
    4275   00:87FC                      
    4276   00:87FC                      .bolsillo_cont1:
    4277   00:87FC                      
    4278   00:87FC  FE 24               			cp		36
    4279   00:87FE  C2 03 88            			jp		nz,.bolsillo_cont2
    4280   00:8801  3E 04               			ld		a,4
    4281   00:8803                      
    4282   00:8803                      .bolsillo_cont2:
    4283   00:8803                      
    4284   00:8803  4F                  			ld		c,a
    4285   00:8804                      
    4286   00:8804  DD 21 D4 C0         			ld		ix,MONOCICLO
    4287   00:8808  06 1F               			ld		b,31
    4288   00:880A  2E 00               			ld		l,0
    4289   00:880C  C9                  			ret
    4290   00:880D                      
    4291   00:880D                      .prepara_atributos:
    4292   00:880D                      
    4293   00:880D  CD 06 51            			call	COMUN_Y_CUATRO_SPRITES
    4294   00:8810  78                  			ld		a,b
    4295   00:8811  CD F6 50            			call	COMUN_X_CUATRO_SPRITES
    4296   00:8814  79                  			ld		a,c
    4297   00:8815  CD 16 51            			call	COMUN_PATRON_CUATRO_SPRITES
    4298   00:8818  AF                  			xor		a
    4299   00:8819  CD 27 51            			call	COMUN_ATRIBUTOS_CUATRO_SPRITES
    4300   00:881C                      
    4301   00:881C  06 08               			ld		b,8
    4302   00:881E                      
    4303   00:881E                      .bucle_pinta_dos_bytes_y_sigue:
    4304   00:881E                      
    4305   00:881E  3E 07               			ld		a,7
    4306   00:8820  B8                  			cp		b
    4307   00:8821  CA 2A 88            			jp		z,.bucle_pinta_dos_bytes_y_sigue_0
    4308   00:8824  3E 05               			ld		a,5
    4309   00:8826  B8                  			cp		b
    4310   00:8827  C2 4A 88            			jp		nz,.bucle_pinta_dos_bytes_y_sigue_2
    4311   00:882A                      
    4312   00:882A                      .bucle_pinta_dos_bytes_y_sigue_0:
    4313   00:882A                      
    4314   00:882A  DD 7E FF            			ld		a,(ix-1)
    4315   00:882D  FE 84               			cp		132
    4316   00:882F  CA 41 88            			jp		z,.bucle_pinta_dos_bytes_y_sigue_1
    4317   00:8832  FE 85               			cp		133
    4318   00:8834  CA 41 88            			jp		z,.bucle_pinta_dos_bytes_y_sigue_1
    4319   00:8837  FE A6               			cp		166
    4320   00:8839  CA 41 88            			jp		z,.bucle_pinta_dos_bytes_y_sigue_1
    4321   00:883C  FE A7               			cp		167
    4322   00:883E  C2 4A 88            			jp		nz,.bucle_pinta_dos_bytes_y_sigue_2
    4323   00:8841                      
    4324   00:8841                      .bucle_pinta_dos_bytes_y_sigue_1:
    4325   00:8841                      
    4326   00:8841  DD 6E 00            			ld		l,(ix)
    4327   00:8844  3E 10               			ld		a,00010000b
    4328   00:8846  67                  			ld		h,a
    4329   00:8847  C3 50 88            			jp		.bucle_pinta_dos_bytes_y_sigue_3
    4330   00:884A                      
    4331   00:884A                      .bucle_pinta_dos_bytes_y_sigue_2:
    4332   00:884A                      
    4333   00:884A  DD 6E 00            			ld		l,(ix)
    4334   00:884D  DD 66 01            			ld		h,(ix+1)
    4335   00:8850                      
    4336   00:8850                      .bucle_pinta_dos_bytes_y_sigue_3:
    4337   00:8850                      
    4338   00:8850  CD B9 55            			call	OUT_ESCRIBE_UN_BYTE
    4339   00:8853  11 02 00            			ld		de,2
    4340   00:8856  DD 19               			add		ix,de
    4341   00:8858  10 C4               			djnz	.bucle_pinta_dos_bytes_y_sigue
    4342   00:885A  C9                  			ret		
    4343   00:885B                      
    4344   00:885B                      ATRIBUTOS_VIDAS:
    4345   00:885B                      
    4346   00:885B                      				include "TABLAS/TABLA VALORES INICIALES DIBUJO VIDAS.asm"
       1.  00:885B                      ATRIBUTOS_VIDAS_3:
       2.  00:885B                      
       3.  00:885B                      			db		#ab,0,#04,0,#ab,1,#14,0,#bb,16,#04,0,#bb,17,#14,0
       3.  00:885B  AB 00 04 00 AB 01 14 00 BB 10 04 00 BB 11 14 00 
       4.  00:886B                      			db		#ab,0,#1c,0,#ab,1,#2c,0,#bb,16,#1c,0,#bb,17,#2c,0
       4.  00:886B  AB 00 1C 00 AB 01 2C 00 BB 10 1C 00 BB 11 2C 00 
       5.  00:887B                      			db		#ab,0,#34,0,#ab,1,#44,0,#bb,16,#34,0,#bb,17,#44,0
       5.  00:887B  AB 00 34 00 AB 01 44 00 BB 10 34 00 BB 11 44 00 
       6.  00:888B                      			db		#ab,166,#94,0,#bb,167,#94,0
       6.  00:888B  AB A6 94 00 BB A7 94 00 
       7.  00:8893                      
       8.  00:8893                      ATRIBUTOS_VIDAS_2:
       9.  00:8893                      
      10.  00:8893                      			db		#ab,0,#04,0,#ab,1,#14,0,#bb,16,#04,0,#bb,17,#14,0
      10.  00:8893  AB 00 04 00 AB 01 14 00 BB 10 04 00 BB 11 14 00 
      11.  00:88A3                      			db		#ab,0,#1c,0,#ab,1,#2c,0,#bb,16,#1c,0,#bb,17,#2c,0
      11.  00:88A3  AB 00 1C 00 AB 01 2C 00 BB 10 1C 00 BB 11 2C 00 
      12.  00:88B3                      			db		#DC,0,#34,0,#DC,1,#44,0,#DC,16,#34,0,#DC,17,#44,0
      12.  00:88B3  DC 00 34 00 DC 01 44 00 DC 10 34 00 DC 11 44 00 
      13.  00:88C3                      			db		#ab,166,#94,0,#bb,167,#94,0
      13.  00:88C3  AB A6 94 00 BB A7 94 00 
      14.  00:88CB                      
      15.  00:88CB                      ATRIBUTOS_VIDAS_1:
      16.  00:88CB                      
      17.  00:88CB                      			db		#ab,0,#04,0,#ab,1,#14,0,#bb,16,#04,0,#bb,17,#14,0
      17.  00:88CB  AB 00 04 00 AB 01 14 00 BB 10 04 00 BB 11 14 00 
      18.  00:88DB                      			db		#DC,0,#1c,0,#DC,1,#2c,0,#DC,16,#1c,0,#DC,17,#2c,0
      18.  00:88DB  DC 00 1C 00 DC 01 2C 00 DC 10 1C 00 DC 11 2C 00 
      19.  00:88EB                      			db		#DC,0,#34,0,#DC,1,#44,0,#DC,16,#34,0,#DC,17,#44,0
      19.  00:88EB  DC 00 34 00 DC 01 44 00 DC 10 34 00 DC 11 44 00 
      20.  00:88FB                      			db		#ab,166,#94,0,#bb,167,#94,0
      20.  00:88FB  AB A6 94 00 BB A7 94 00 
      21.  00:8903                      
      22.  00:8903                      ATRIBUTOS_VIDAS_0:
      23.  00:8903                      
      24.  00:8903                      			db		#DC,0,#04,0,#DC,1,#14,0,#DC,16,#04,0,#DC,17,#14,0
      24.  00:8903  DC 00 04 00 DC 01 14 00 DC 10 04 00 DC 11 14 00 
      25.  00:8913                      			db		#DC,0,#1c,0,#DC,1,#2c,0,#DC,16,#1c,0,#DC,17,#2c,0
      25.  00:8913  DC 00 1C 00 DC 01 2C 00 DC 10 1C 00 DC 11 2C 00 
      26.  00:8923                      			db		#DC,0,#34,0,#DC,1,#44,0,#DC,16,#34,0,#DC,17,#44,0
      26.  00:8923  DC 00 34 00 DC 01 44 00 DC 10 34 00 DC 11 44 00 
      27.  00:8933                      			db		#ab,166,#94,0,#bb,167,#94,0
      27.  00:8933  AB A6 94 00 BB A7 94 00 
      28.  00:893B                      								
    4347   00:893B                      				
    4348   00:893B                      RELACION_POSICIONES_SPRITES_OBJETOS:
    4349   00:893B                      
    4350   00:893B                      				include	"TABLAS/TABLA POSICIONES SPRITES OBJETOS.asm"
       1.  00:893B                      				db	128,130,132,134,136,138,142,140
       1.  00:893B  80 82 84 86 88 8A 8E 8C 
       2.  00:8943                      				db	160,164,166,168,170,200,174,192
       2.  00:8943  A0 A4 A6 A8 AA C8 AE C0 
       3.  00:894B                      				db	194,196,198,172,202,204,206,224
       3.  00:894B  C2 C4 C6 AC CA CC CE E0 
       4.  00:8953                      				db	226,228,232,230,162,234,236,238
       4.  00:8953  E2 E4 E8 E6 A2 EA EC EE 
    4351   00:895B                      
    4352   00:895B                      RELACION_DE_SUCESOS_POR_PANTALLA:
    4353   00:895B                      
    4354   00:895B                      				include	"TABLAS/TABLA DE SUCESOS POR PANTALLA.asm"
       1.  00:895B  8D 45                   dw        EVENTO_ESPECIAL_SEGUN_PANTALLA.PANTALLA00
       2.  00:895D  92 45                   dw        EVENTO_ESPECIAL_SEGUN_PANTALLA.PANTALLA01
       3.  00:895F  92 45                   dw        EVENTO_ESPECIAL_SEGUN_PANTALLA.PANTALLA02
       4.  00:8961  92 45                   dw        EVENTO_ESPECIAL_SEGUN_PANTALLA.PANTALLA03
       5.  00:8963  95 45                   dw        EVENTO_ESPECIAL_SEGUN_PANTALLA.PANTALLA04
       6.  00:8965  9A 45                   dw        EVENTO_ESPECIAL_SEGUN_PANTALLA.PANTALLA05
       7.  00:8967  9A 45                   dw        EVENTO_ESPECIAL_SEGUN_PANTALLA.PANTALLA06
       8.  00:8969  9B 45                   dw        EVENTO_ESPECIAL_SEGUN_PANTALLA.PANTALLA07
       9.  00:896B  A0 45                   dw        EVENTO_ESPECIAL_SEGUN_PANTALLA.PANTALLA08
      10.  00:896D  A8 45                   dw        EVENTO_ESPECIAL_SEGUN_PANTALLA.PANTALLA09
      11.  00:896F  AD 45                   dw        EVENTO_ESPECIAL_SEGUN_PANTALLA.PANTALLA10
      12.  00:8971  B2 45                   dw        EVENTO_ESPECIAL_SEGUN_PANTALLA.PANTALLA11
      13.  00:8973  B6 45                   dw        EVENTO_ESPECIAL_SEGUN_PANTALLA.PANTALLA12
      14.  00:8975  23 46                   dw        EVENTO_ESPECIAL_SEGUN_PANTALLA.PANTALLA13
      15.  00:8977  23 46                   dw        EVENTO_ESPECIAL_SEGUN_PANTALLA.PANTALLA14
      16.  00:8979  23 46                   dw        EVENTO_ESPECIAL_SEGUN_PANTALLA.PANTALLA15
      17.  00:897B  C0 46                   dw        EVENTO_ESPECIAL_SEGUN_PANTALLA.PANTALLA16
      18.  00:897D  8D 47                   dw        EVENTO_ESPECIAL_SEGUN_PANTALLA.PANTALLA17
      19.  00:897F  8D 47                   dw        EVENTO_ESPECIAL_SEGUN_PANTALLA.PANTALLA18
      20.  00:8981  8D 47                   dw        EVENTO_ESPECIAL_SEGUN_PANTALLA.PANTALLA19
      21.  00:8983  8E 47                   dw        EVENTO_ESPECIAL_SEGUN_PANTALLA.PANTALLA20
      22.  00:8985  D0 47                   dw        EVENTO_ESPECIAL_SEGUN_PANTALLA.PANTALLA21
      23.  00:8987  D1 47                   dw        EVENTO_ESPECIAL_SEGUN_PANTALLA.PANTALLA22
      24.  00:8989  D6 47                   dw        EVENTO_ESPECIAL_SEGUN_PANTALLA.PANTALLA23
      25.  00:898B  D6 47                   dw        EVENTO_ESPECIAL_SEGUN_PANTALLA.PANTALLA24
      26.  00:898D  D7 47                   dw        EVENTO_ESPECIAL_SEGUN_PANTALLA.PANTALLA25
      27.  00:898F  17 48                   dw        EVENTO_ESPECIAL_SEGUN_PANTALLA.PANTALLA26
      28.  00:8991  17 48                   dw        EVENTO_ESPECIAL_SEGUN_PANTALLA.PANTALLA27
      29.  00:8993  18 48                   dw        EVENTO_ESPECIAL_SEGUN_PANTALLA.PANTALLA28
      30.  00:8995  51 48                   dw        EVENTO_ESPECIAL_SEGUN_PANTALLA.PANTALLA29
      31.  00:8997  C8 48                   dw        EVENTO_ESPECIAL_SEGUN_PANTALLA.PANTALLA30
      32.  00:8999  C8 48                   dw        EVENTO_ESPECIAL_SEGUN_PANTALLA.PANTALLA31
      33.  00:899B  C8 48                   dw        EVENTO_ESPECIAL_SEGUN_PANTALLA.PANTALLA32
      34.  00:899D  C9 48                   dw        EVENTO_ESPECIAL_SEGUN_PANTALLA.PANTALLA33
      35.  00:899F  CE 48                   dw        EVENTO_ESPECIAL_SEGUN_PANTALLA.PANTALLA34
      36.  00:89A1  D3 48                   dw        EVENTO_ESPECIAL_SEGUN_PANTALLA.PANTALLA35
      37.  00:89A3  D3 48                   dw        EVENTO_ESPECIAL_SEGUN_PANTALLA.PANTALLA36
      38.  00:89A5  D3 48                   dw        EVENTO_ESPECIAL_SEGUN_PANTALLA.PANTALLA37
      39.  00:89A7  D3 48                   dw        EVENTO_ESPECIAL_SEGUN_PANTALLA.PANTALLA38
      40.  00:89A9  D4 48                   dw        EVENTO_ESPECIAL_SEGUN_PANTALLA.PANTALLA39
      41.  00:89AB  D9 48                   dw        EVENTO_ESPECIAL_SEGUN_PANTALLA.PANTALLA40
      42.  00:89AD  DE 48                   dw        EVENTO_ESPECIAL_SEGUN_PANTALLA.PANTALLA41
      43.  00:89AF  DF 48                   dw        EVENTO_ESPECIAL_SEGUN_PANTALLA.PANTALLA42
      44.  00:89B1  E4 48                   dw        EVENTO_ESPECIAL_SEGUN_PANTALLA.PANTALLA43
      45.  00:89B3  E5 48                   dw        EVENTO_ESPECIAL_SEGUN_PANTALLA.PANTALLA44
      46.  00:89B5  EA 48                   dw        EVENTO_ESPECIAL_SEGUN_PANTALLA.PANTALLA45
      47.  00:89B7  EA 48                   dw        EVENTO_ESPECIAL_SEGUN_PANTALLA.PANTALLA46
      48.  00:89B9  EA 48                   dw        EVENTO_ESPECIAL_SEGUN_PANTALLA.PANTALLA47
      49.  00:89BB  EA 48                   dw        EVENTO_ESPECIAL_SEGUN_PANTALLA.PANTALLA48
      50.  00:89BD  EB 48                   dw        EVENTO_ESPECIAL_SEGUN_PANTALLA.PANTALLA49
      51.  00:89BF  F0 48                   dw        EVENTO_ESPECIAL_SEGUN_PANTALLA.PANTALLA50
      52.  00:89C1  F0 48                   dw        EVENTO_ESPECIAL_SEGUN_PANTALLA.PANTALLA51
      53.  00:89C3  F1 48                   dw        EVENTO_ESPECIAL_SEGUN_PANTALLA.PANTALLA52
      54.  00:89C5  F6 48                   dw        EVENTO_ESPECIAL_SEGUN_PANTALLA.PANTALLA53
      55.  00:89C7  F6 48                   dw        EVENTO_ESPECIAL_SEGUN_PANTALLA.PANTALLA54
      56.  00:89C9  F6 48                   dw        EVENTO_ESPECIAL_SEGUN_PANTALLA.PANTALLA55
      57.  00:89CB  F6 48                   dw        EVENTO_ESPECIAL_SEGUN_PANTALLA.PANTALLA56
      58.  00:89CD  F6 48                   dw        EVENTO_ESPECIAL_SEGUN_PANTALLA.PANTALLA57
      59.  00:89CF  F6 48                   dw        EVENTO_ESPECIAL_SEGUN_PANTALLA.PANTALLA58
      60.  00:89D1  F6 48                   dw        EVENTO_ESPECIAL_SEGUN_PANTALLA.PANTALLA59
      61.  00:89D3  F7 48                   dw        EVENTO_ESPECIAL_SEGUN_PANTALLA.PANTALLA60
      62.  00:89D5  FC 48                   dw        EVENTO_ESPECIAL_SEGUN_PANTALLA.PANTALLA61
      63.  00:89D7  FC 48                   dw        EVENTO_ESPECIAL_SEGUN_PANTALLA.PANTALLA62
      64.  00:89D9  FC 48                   dw        EVENTO_ESPECIAL_SEGUN_PANTALLA.PANTALLA63
      65.  00:89DB  FC 48                   dw        EVENTO_ESPECIAL_SEGUN_PANTALLA.PANTALLA64
      66.  00:89DD  FC 48                   dw        EVENTO_ESPECIAL_SEGUN_PANTALLA.PANTALLA65
      67.  00:89DF  FD 48                   dw        EVENTO_ESPECIAL_SEGUN_PANTALLA.PANTALLA66
      68.  00:89E1  02 49                   dw        EVENTO_ESPECIAL_SEGUN_PANTALLA.PANTALLA67
      69.  00:89E3  02 49                   dw        EVENTO_ESPECIAL_SEGUN_PANTALLA.PANTALLA68
      70.  00:89E5  03 49                   dw        EVENTO_ESPECIAL_SEGUN_PANTALLA.PANTALLA69
    4355   00:89E7                      
    4356   00:89E7                      RELACION_POSICIONES_OBJETOS:
    4357   00:89E7                      
    4358   00:89E7                      				include "TABLAS/TABLA POSICIONES OBJETOS.asm"
       1.  00:89E7  00 8A A0            			db	#00,#8A,#A0 ;OK 00
       2.  00:89EA  00 00 00            			db	#00,#00,#00 ;OK
       3.  00:89ED  00 00 00            			db	#00,#00,#00 ;OK
       4.  00:89F0  00 00 00            			db	#00,#00,#00 ;OK
       5.  00:89F3  28 CC 40            			db	#28,#CC,#40 ;OK
       6.  00:89F6  00 00 00            			db	#00,#00,#00 ;OK
       7.  00:89F9  00 00 00            			db	#00,#00,#00 ;OK
       8.  00:89FC  37 E6 78            			db	#37,#E6,#78 ;OK
       9.  00:89FF  00 A6 A0            			db	#00,#A6,#A0 ;OK
      10.  00:8A02  20 8E 78            			db	#20,#8E,#78 ;OK
      11.  00:8A05  58 AA A8            			db	#58,#AA,#A8 ;OK 10
      12.  00:8A08  20 80 58            			db	#20,#80,#58 ;OK
      13.  00:8A0B  58 84 B8            			db	#58,#84,#B8 ;OK
      14.  00:8A0E  00 00 00            			db	#00,#00,#00 ;OK
      15.  00:8A11  00 00 00            			db	#00,#00,#00 ;OK
      16.  00:8A14  48 E4 68            			db	#48,#E4,#68 ;OK
      17.  00:8A17  30 8C 70            			db	#30,#8C,#70 ;OK
      18.  00:8A1A  00 00 00            			db	#00,#00,#00 ;OK
      19.  00:8A1D  00 00 00            			db	#00,#00,#00 ;OK
      20.  00:8A20  00 00 00            			db	#00,#00,#00 ;OK
      21.  00:8A23  57 A4 80            			db	#57,#A4,#80 ;OK 20
      22.  00:8A26  00 00 00            			db	#00,#00,#00 ;OK
      23.  00:8A29  58 A8 58            			db	#58,#A8,#58 ;OK
      24.  00:8A2C  00 00 00            			db	#00,#00,#00 ;OK
      25.  00:8A2F  00 00 00            			db	#00,#00,#00 ;OK
      26.  00:8A32  00 00 00            			db	#00,#00,#00 ;OK
      27.  00:8A35  00 00 00            			db	#00,#00,#00 ;OK
      28.  00:8A38  00 00 00            			db	#00,#00,#00 ;OK
      29.  00:8A3B  40 AC 50            			db	#40,#AC,#50 ;OK
      30.  00:8A3E  40 A0 00            			db	#40,#A0,#00 ;OK
      31.  00:8A41  00 00 00            			db	#00,#00,#00 ;OK 30
      32.  00:8A44  00 00 00            			db	#00,#00,#00 ;OK
      33.  00:8A47  00 00 00            			db	#00,#00,#00 ;OK
      34.  00:8A4A  40 E8 20            			db	#40,#E8,#20 ;OK
      35.  00:8A4D  50 82 78            			db	#50,#82,#78 ;OK
      36.  00:8A50  00 00 00            			db	#00,#00,#00 ;OK
      37.  00:8A53  00 00 00            			db	#00,#00,#00 ;OK
      38.  00:8A56  00 00 00            			db	#00,#00,#00 ;OK
      39.  00:8A59  00 00 00            			db	#00,#00,#00 ;OK
      40.  00:8A5C  40 C0 80            			db	#40,#C0,#80 ;OK
      41.  00:8A5F  48 AE 60            			db	#48,#AE,#60 ;OK 40
      42.  00:8A62  00 00 00            			db	#00,#00,#00 ;OK
      43.  00:8A65  40 88 A8            			db	#40,#88,#A8 ;OK
      44.  00:8A68  00 00 00            			db	#00,#00,#00 ;OK
      45.  00:8A6B  30 E0 78            			db	#30,#E0,#78 ;OK
      46.  00:8A6E  00 00 00            			db	#00,#00,#00 ;OK
      47.  00:8A71  00 00 00            			db	#00,#00,#00 ;OK
      48.  00:8A74  00 00 00            			db	#00,#00,#00 ;OK
      49.  00:8A77  00 00 00            			db	#00,#00,#00 ;OK
      50.  00:8A7A  40 C6 88            			db	#40,#C6,#88 ;OK
      51.  00:8A7D  00 00 00            			db	#00,#00,#00 ;OK 50
      52.  00:8A80  58 C8 B8            			db	#58,#C8,#B8 ;OK
      53.  00:8A83  58 C4 80            			db	#58,#C4,#80 ;OK
      54.  00:8A86  00 00 00            			db	#00,#00,#00 ;OK
      55.  00:8A89  00 00 00            			db	#00,#00,#00 ;OK
      56.  00:8A8C  00 00 00            			db	#00,#00,#00 ;OK
      57.  00:8A8F  00 00 00            			db	#00,#00,#00 ;OK
      58.  00:8A92  00 00 00            			db	#00,#00,#00 ;OK
      59.  00:8A95  00 00 00            			db	#00,#00,#00 ;OK
      60.  00:8A98  00 00 00            			db	#00,#00,#00 ;OK
      61.  00:8A9B  50 CA 38            			db	#50,#CA,#38 ;OK 60
      62.  00:8A9E  00 00 00            			db	#00,#00,#00 ;OK
      63.  00:8AA1  00 00 00            			db	#00,#00,#00 ;OK
      64.  00:8AA4  28 EC D0            			db	#28,#EC,#D0 ;OK
      65.  00:8AA7  00 00 00            			db	#00,#00,#00 ;OK
      66.  00:8AAA  00 00 00            			db	#00,#00,#00 ;OK
      67.  00:8AAD  28 C2 88            			db	#28,#C2,#88 ;OK
      68.  00:8AB0  00 00 00            			db	#00,#00,#00 ;OK
      69.  00:8AB3  00 00 00            			db	#00,#00,#00 ;OK
      70.  00:8AB6  18 CE 20            			db	#18,#CE,#20 ;OK
      71.  00:8AB9                      
      72.  00:8AB9                      RELACION_POSICIONES_OBJETOS_2:
      73.  00:8AB9                      
      74.  00:8AB9  00 00 00            			db	#00,#00,#00 ;OK 00
      75.  00:8ABC  00 00 00            			db	#00,#00,#00 ;OK
      76.  00:8ABF  00 00 00            			db	#00,#00,#00 ;OK
      77.  00:8AC2  00 00 00            			db	#00,#00,#00 ;OK
      78.  00:8AC5  00 00 00            			db	#00,#00,#00 ;OK
      79.  00:8AC8  00 00 00            			db	#00,#00,#00 ;OK
      80.  00:8ACB  00 00 00            			db	#00,#00,#00 ;OK
      81.  00:8ACE  00 00 00            			db	#00,#00,#00 ;OK
      82.  00:8AD1  00 00 00            			db	#00,#00,#00 ;OK
      83.  00:8AD4  00 00 00            			db	#00,#00,#00 ;OK
      84.  00:8AD7  00 00 00            			db	#00,#00,#00 ;OK 10
      85.  00:8ADA  00 00 00            			db	#00,#00,#00 ;OK
      86.  00:8ADD  00 00 00            			db	#00,#00,#00 ;OK
      87.  00:8AE0  00 00 00            			db	#00,#00,#00 ;OK
      88.  00:8AE3  00 00 00            			db	#00,#00,#00 ;OK
      89.  00:8AE6  58 E2 68            			db	#58,#E2,#68 ;OK
      90.  00:8AE9  38 86 B0            			db	#38,#86,#B0 ;OK 
      91.  00:8AEC  00 00 00            			db	#00,#00,#00 ;OK
      92.  00:8AEF  00 00 00            			db	#00,#00,#00 ;OK
      93.  00:8AF2  00 00 00            			db	#00,#00,#00 ;OK
      94.  00:8AF5  00 00 00            			db	#00,#00,#00 ;OK 20
      95.  00:8AF8  00 00 00            			db	#00,#00,#00 ;OK
      96.  00:8AFB  00 00 00            			db	#00,#00,#00 ;OK
      97.  00:8AFE  00 00 00            			db	#00,#00,#00 ;OK
      98.  00:8B01  00 00 00            			db	#00,#00,#00 ;OK
      99.  00:8B04  00 00 00            			db	#00,#00,#00 ;OK
     100.  00:8B07  00 00 00            			db	#00,#00,#00 ;OK
     101.  00:8B0A  00 00 00            			db	#00,#00,#00 ;OK
     102.  00:8B0D  00 00 00            			db	#00,#00,#00 ;OK
     103.  00:8B10  40 A2 28            			db	#40,#a2,#28 ;OK
     104.  00:8B13  00 00 00            			db	#00,#00,#00 ;OK 30
     105.  00:8B16  00 00 00            			db	#00,#00,#00 ;OK
     106.  00:8B19  00 00 00            			db	#00,#00,#00 ;OK
     107.  00:8B1C  00 00 00            			db	#00,#00,#00 ;OK
     108.  00:8B1F  00 00 00            			db	#00,#00,#00 ;OK
     109.  00:8B22  00 00 00            			db	#00,#00,#00 ;OK
     110.  00:8B25  00 00 00            			db	#00,#00,#00 ;OK
     111.  00:8B28  00 00 00            			db	#00,#00,#00 ;OK
     112.  00:8B2B  00 00 00            			db	#00,#00,#00 ;OK
     113.  00:8B2E  00 00 00            			db	#00,#00,#00 ;OK
     114.  00:8B31  00 00 00            			db	#00,#00,#00 ;OK 40
     115.  00:8B34  00 00 00            			db	#00,#00,#00 ;OK
     116.  00:8B37  00 00 00            			db	#00,#00,#00 ;OK
     117.  00:8B3A  00 00 00            			db	#00,#00,#00 ;OK
     118.  00:8B3D  00 00 00            			db	#00,#00,#00 ;OK
     119.  00:8B40  00 00 00            			db	#00,#00,#00 ;OK
     120.  00:8B43  00 00 00            			db	#00,#00,#00 ;OK
     121.  00:8B46  00 00 00            			db	#00,#00,#00 ;OK
     122.  00:8B49  00 00 00            			db	#00,#00,#00 ;OK
     123.  00:8B4C  00 00 00            			db	#00,#00,#00 ;OK
     124.  00:8B4F  00 00 00            			db	#00,#00,#00 ;OK 50
     125.  00:8B52  00 00 00            			db	#00,#00,#00 ;OK
     126.  00:8B55  00 00 00            			db	#00,#00,#00 ;OK
     127.  00:8B58  00 00 00            			db	#00,#00,#00 ;OK
     128.  00:8B5B  00 00 00            			db	#00,#00,#00 ;OK
     129.  00:8B5E  00 00 00            			db	#00,#00,#00 ;OK
     130.  00:8B61  00 00 00            			db	#00,#00,#00 ;OK
     131.  00:8B64  00 00 00            			db	#00,#00,#00 ;OK
     132.  00:8B67  00 00 00            			db	#00,#00,#00 ;OK
     133.  00:8B6A  00 00 00            			db	#00,#00,#00 ;OK
     134.  00:8B6D  00 00 00            			db	#00,#00,#00 ;OK 60
     135.  00:8B70  00 00 00            			db	#00,#00,#00 ;OK
     136.  00:8B73  00 00 00            			db	#00,#00,#00 ;OK
     137.  00:8B76  00 00 00            			db	#00,#00,#00 ;OK
     138.  00:8B79  00 00 00            			db	#00,#00,#00 ;OK
     139.  00:8B7C  00 00 00            			db	#00,#00,#00 ;OK
     140.  00:8B7F  00 00 00            			db	#00,#00,#00 ;OK
     141.  00:8B82  00 00 00            			db	#00,#00,#00 ;OK
     142.  00:8B85  00 00 00            			db	#00,#00,#00 ;OK
     143.  00:8B88  00 00 00            			db	#00,#00,#00 ;OK
    4359   00:8B8B                      
    4360   00:8B8B                      RELACION_DE_EVENTOS_ESPECIALES_POR_PANTALLA:
    4361   00:8B8B                      
    4362   00:8B8B                      				include	"TABLAS/TABLA INICIOS ESPECIALES POR PANTALLA.asm"
       1.  00:8B8B  B3 84               				dw		INICIO_PANTALLA_00
       2.  00:8B8D  BB 84               				dw		INICIO_PANTALLA_01
       3.  00:8B8F  BB 84               				dw		INICIO_PANTALLA_02
       4.  00:8B91  BC 84               				dw		INICIO_PANTALLA_03
       5.  00:8B93  FD 84               				dw		INICIO_PANTALLA_04
       6.  00:8B95  05 85               				dw		INICIO_PANTALLA_05
       7.  00:8B97  05 85               				dw		INICIO_PANTALLA_06
       8.  00:8B99  06 85               				dw		INICIO_PANTALLA_07
       9.  00:8B9B  0E 85               				dw		INICIO_PANTALLA_08
      10.  00:8B9D  16 85               				dw		INICIO_PANTALLA_09
      11.  00:8B9F  1E 85               				dw		INICIO_PANTALLA_10
      12.  00:8BA1  26 85               				dw		INICIO_PANTALLA_11
      13.  00:8BA3  2E 85               				dw		INICIO_PANTALLA_12
      14.  00:8BA5  36 85               				dw		INICIO_PANTALLA_13
      15.  00:8BA7  36 85               				dw		INICIO_PANTALLA_14
      16.  00:8BA9  37 85               				dw		INICIO_PANTALLA_15
      17.  00:8BAB  3D 85               				dw		INICIO_PANTALLA_16
      18.  00:8BAD  59 85               				dw		INICIO_PANTALLA_17
      19.  00:8BAF  59 85               				dw		INICIO_PANTALLA_18
      20.  00:8BB1  59 85               				dw		INICIO_PANTALLA_19
      21.  00:8BB3  5A 85               				dw		INICIO_PANTALLA_20
      22.  00:8BB5  62 85               				dw		INICIO_PANTALLA_21
      23.  00:8BB7  63 85               				dw		INICIO_PANTALLA_22
      24.  00:8BB9  6B 85               				dw		INICIO_PANTALLA_23
      25.  00:8BBB  6B 85               				dw		INICIO_PANTALLA_24
      26.  00:8BBD  6B 85               				dw		INICIO_PANTALLA_25
      27.  00:8BBF  6B 85               				dw		INICIO_PANTALLA_26
      28.  00:8BC1  6B 85               				dw		INICIO_PANTALLA_27
      29.  00:8BC3  6C 85               				dw		INICIO_PANTALLA_28
      30.  00:8BC5  AC 85               				dw		INICIO_PANTALLA_29
      31.  00:8BC7  C2 85               				dw		INICIO_PANTALLA_30
      32.  00:8BC9  C2 85               				dw		INICIO_PANTALLA_31
      33.  00:8BCB  C2 85               				dw		INICIO_PANTALLA_32
      34.  00:8BCD  C3 85               				dw		INICIO_PANTALLA_33
      35.  00:8BCF  CB 85               				dw		INICIO_PANTALLA_34
      36.  00:8BD1  D3 85               				dw		INICIO_PANTALLA_35
      37.  00:8BD3  D3 85               				dw		INICIO_PANTALLA_36
      38.  00:8BD5  D3 85               				dw		INICIO_PANTALLA_37
      39.  00:8BD7  D3 85               				dw		INICIO_PANTALLA_38
      40.  00:8BD9  D4 85               				dw		INICIO_PANTALLA_39
      41.  00:8BDB  DC 85               				dw		INICIO_PANTALLA_40
      42.  00:8BDD  E4 85               				dw		INICIO_PANTALLA_41
      43.  00:8BDF  E5 85               				dw		INICIO_PANTALLA_42
      44.  00:8BE1  ED 85               				dw		INICIO_PANTALLA_43
      45.  00:8BE3  EE 85               				dw		INICIO_PANTALLA_44
      46.  00:8BE5  F6 85               				dw		INICIO_PANTALLA_45
      47.  00:8BE7  F6 85               				dw		INICIO_PANTALLA_46
      48.  00:8BE9  F6 85               				dw		INICIO_PANTALLA_47
      49.  00:8BEB  F6 85               				dw		INICIO_PANTALLA_48
      50.  00:8BED  F7 85               				dw		INICIO_PANTALLA_49
      51.  00:8BEF  FF 85               				dw		INICIO_PANTALLA_50
      52.  00:8BF1  00 86               				dw		INICIO_PANTALLA_51
      53.  00:8BF3  08 86               				dw		INICIO_PANTALLA_52
      54.  00:8BF5  10 86               				dw		INICIO_PANTALLA_53
      55.  00:8BF7  10 86               				dw		INICIO_PANTALLA_54
      56.  00:8BF9  10 86               				dw		INICIO_PANTALLA_55
      57.  00:8BFB  10 86               				dw		INICIO_PANTALLA_56
      58.  00:8BFD  10 86               				dw		INICIO_PANTALLA_57
      59.  00:8BFF  10 86               				dw		INICIO_PANTALLA_58
      60.  00:8C01  10 86               				dw		INICIO_PANTALLA_59
      61.  00:8C03  11 86               				dw		INICIO_PANTALLA_60
      62.  00:8C05  19 86               				dw		INICIO_PANTALLA_61
      63.  00:8C07  19 86               				dw		INICIO_PANTALLA_62
      64.  00:8C09  1A 86               				dw		INICIO_PANTALLA_63
      65.  00:8C0B  22 86               				dw		INICIO_PANTALLA_64
      66.  00:8C0D  22 86               				dw		INICIO_PANTALLA_65
      67.  00:8C0F  23 86               				dw		INICIO_PANTALLA_66
      68.  00:8C11  2B 86               				dw		INICIO_PANTALLA_67
      69.  00:8C13  2B 86               				dw		INICIO_PANTALLA_68
      70.  00:8C15  2C 86               				dw		INICIO_PANTALLA_69
      71.  00:8C17                      				
    4363   00:8C17                      
    4364   00:8C17                      POSICIONES_TYLES_ALREDEDOR:
    4365   00:8C17                      
    4366   00:8C17                      				include	"TABLAS/TABLA CONTROL TYLES ENTORNO.asm"
       1.  00:8C17                      				dw		#2009,#2014,#1018,#1818,#1806,#1006,#1807,#1811,#2006,#2018,#2307,#2311,#1f09
       1.  00:8C17  09 20 14 20 18 10 18 18 06 18 06 10 07 18 11 18 
       1.  00:8C27  06 20 18 20 07 23 11 23 09 1F 
       2.  00:8C31                      				dw		#1808,#1812,#200a,#2015,#080a,#0815
       2.  00:8C31  08 18 12 18 0A 20 15 20 0A 08 15 08 
    4367   00:8C3D                      
    4368   00:8C3D                      RELACION_EXTRAS_TILES_B:
    4369   00:8C3D                      
    4370   00:8C3D                      				include	"TABLAS/TABLA DIRECCIONES TILES EN B.asm"
       1.  00:8C3D  15 83               				dw		TILES_DE_B.PANTALLA00 ;OK
       2.  00:8C3F  15 83               				dw		TILES_DE_B.PANTALLA00 ;OK
       3.  00:8C41  15 83               				dw		TILES_DE_B.PANTALLA00 ;OK
       4.  00:8C43  15 83               				dw		TILES_DE_B.PANTALLA00 ;OK
       5.  00:8C45  15 83               				dw		TILES_DE_B.PANTALLA00 ;OK
       6.  00:8C47  15 83               				dw		TILES_DE_B.PANTALLA00 ;OK
       7.  00:8C49  15 83               				dw		TILES_DE_B.PANTALLA00 ;OK
       8.  00:8C4B  15 83               				dw		TILES_DE_B.PANTALLA00 ;OK
       9.  00:8C4D  15 83               				dw		TILES_DE_B.PANTALLA00 ;OK
      10.  00:8C4F  15 83               				dw		TILES_DE_B.PANTALLA00 ;OK
      11.  00:8C51  15 83               				dw		TILES_DE_B.PANTALLA00 ;OK
      12.  00:8C53  15 83               				dw		TILES_DE_B.PANTALLA00 ;OK
      13.  00:8C55  16 83               				dw		TILES_DE_B.PANTALLA12 ;OK
      14.  00:8C57  1D 83               				dw		TILES_DE_B.PANTALLA13 ;OK
      15.  00:8C59  24 83               				dw		TILES_DE_B.PANTALLA14 ;OK
      16.  00:8C5B  2B 83               				dw		TILES_DE_B.PANTALLA15 ;OK
      17.  00:8C5D  15 83               				dw		TILES_DE_B.PANTALLA00 ;OK
      18.  00:8C5F  15 83               				dw		TILES_DE_B.PANTALLA00 ;OK
      19.  00:8C61  15 83               				dw		TILES_DE_B.PANTALLA00 ;OK
      20.  00:8C63  32 83               				dw		TILES_DE_B.PANTALLA19 ;OK
      21.  00:8C65  39 83               				dw		TILES_DE_B.PANTALLA20 ;OK
      22.  00:8C67  40 83               				dw		TILES_DE_B.PANTALLA21 ;OK
      23.  00:8C69  47 83               				dw		TILES_DE_B.PANTALLA22 ;OK
      24.  00:8C6B  4E 83               				dw		TILES_DE_B.PANTALLA23 ;OK
      25.  00:8C6D  55 83               				dw		TILES_DE_B.PANTALLA24 ;OK
      26.  00:8C6F  15 83               				dw		TILES_DE_B.PANTALLA00 ;OK
      27.  00:8C71  15 83               				dw		TILES_DE_B.PANTALLA00 ;OK
      28.  00:8C73  5C 83               				dw		TILES_DE_B.PANTALLA27 ;OK
      29.  00:8C75  63 83               				dw		TILES_DE_B.PANTALLA28 ;OK
      30.  00:8C77  6A 83               				dw		TILES_DE_B.PANTALLA29 ;OK
      31.  00:8C79  15 83               				dw		TILES_DE_B.PANTALLA00 ;OK
      32.  00:8C7B  15 83               				dw		TILES_DE_B.PANTALLA00 ;OK
      33.  00:8C7D  15 83               				dw		TILES_DE_B.PANTALLA00 ;OK
      34.  00:8C7F  15 83               				dw		TILES_DE_B.PANTALLA00 ;OK
      35.  00:8C81  15 83               				dw		TILES_DE_B.PANTALLA00 ;OK
      36.  00:8C83  71 83               				dw		TILES_DE_B.PANTALLA35 ;OK
      37.  00:8C85  15 83               				dw		TILES_DE_B.PANTALLA00 ;OK
      38.  00:8C87  15 83               				dw		TILES_DE_B.PANTALLA00 ;OK
      39.  00:8C89  15 83               				dw		TILES_DE_B.PANTALLA00 ;OK
      40.  00:8C8B  15 83               				dw		TILES_DE_B.PANTALLA00 ;OK
      41.  00:8C8D  15 83               				dw		TILES_DE_B.PANTALLA00 ;OK
      42.  00:8C8F  15 83               				dw		TILES_DE_B.PANTALLA00 ;OK
      43.  00:8C91  78 83               				dw		TILES_DE_B.PANTALLA42 ;OK
      44.  00:8C93  15 83               				dw		TILES_DE_B.PANTALLA00 ;OK
      45.  00:8C95  15 83               				dw		TILES_DE_B.PANTALLA00 ;OK
      46.  00:8C97  15 83               				dw		TILES_DE_B.PANTALLA00 ;OK
      47.  00:8C99  15 83               				dw		TILES_DE_B.PANTALLA00 ;OK
      48.  00:8C9B  15 83               				dw		TILES_DE_B.PANTALLA00 ;OK
      49.  00:8C9D  15 83               				dw		TILES_DE_B.PANTALLA00 ;OK
      50.  00:8C9F  15 83               				dw		TILES_DE_B.PANTALLA00 ;OK
      51.  00:8CA1  15 83               				dw		TILES_DE_B.PANTALLA00 ;OK
      52.  00:8CA3  7F 83               				dw		TILES_DE_B.PANTALLA51 ;OK
      53.  00:8CA5  86 83               				dw		TILES_DE_B.PANTALLA52 ;OK
      54.  00:8CA7  15 83               				dw		TILES_DE_B.PANTALLA00 ;OK
      55.  00:8CA9  15 83               				dw		TILES_DE_B.PANTALLA00 ;OK
      56.  00:8CAB  8D 83               				dw		TILES_DE_B.PANTALLA55 ;OK
      57.  00:8CAD  15 83               				dw		TILES_DE_B.PANTALLA00 ;OK
      58.  00:8CAF  15 83               				dw		TILES_DE_B.PANTALLA00 ;OK
      59.  00:8CB1  15 83               				dw		TILES_DE_B.PANTALLA00 ;OK
      60.  00:8CB3  15 83               				dw		TILES_DE_B.PANTALLA00 ;OK
      61.  00:8CB5  15 83               				dw		TILES_DE_B.PANTALLA00 ;OK
      62.  00:8CB7  15 83               				dw		TILES_DE_B.PANTALLA00 ;OK
      63.  00:8CB9  15 83               				dw		TILES_DE_B.PANTALLA00 ;OK
      64.  00:8CBB  15 83               				dw		TILES_DE_B.PANTALLA00 ;OK
      65.  00:8CBD  94 83               				dw		TILES_DE_B.PANTALLA64 ;OK
      66.  00:8CBF  15 83               				dw		TILES_DE_B.PANTALLA00 ;OK
      67.  00:8CC1  9B 83               				dw		TILES_DE_B.PANTALLA66 ;OK
      68.  00:8CC3  15 83               				dw		TILES_DE_B.PANTALLA00 ;OK
      69.  00:8CC5  15 83               				dw		TILES_DE_B.PANTALLA00 ;OK
      70.  00:8CC7  A2 83               				dw		TILES_DE_B.PANTALLA69
    4371   00:8CC9                      				include	"TABLAS/TABLAS TILES A PONER EN B.asm"	
       1.  00:8CC9                      RELACION_TILES_B_PANTALLA_12:
       2.  00:8CC9                      
       3.  00:8CC9                      				dw		1,2,#E72A,958,959		; PIEDRA PEQUEÑA CUADRADA
       3.  00:8CC9  01 00 02 00 2A E7 BE 03 BF 03 
       4.  00:8CD3                      				
       5.  00:8CD3                      RELACION_TILES_B_PANTALLA_13:
       6.  00:8CD3                      
       7.  00:8CD3                      				dw		4,1,#E5F8,881,4,#E730,912,913,914,892		; PIEDRA
       7.  00:8CD3  04 00 01 00 F8 E5 71 03 04 00 30 E7 90 03 91 03 
       7.  00:8CE3  92 03 7C 03 
       8.  00:8CE7                      				dw		3,#E68A,906,907,908,3,#E70A,909,910,911 	; RAMA
       8.  00:8CE7  03 00 8A E6 8A 03 8B 03 8C 03 03 00 0A E7 8D 03 
       8.  00:8CF7  8E 03 8F 03 
       9.  00:8CFB                      				
      10.  00:8CFB                      RELACION_TILES_B_PANTALLA_14:
      11.  00:8CFB                      
      12.  00:8CFB                      				dw		6,1,#E5D8,881,4,#E710,912,913,914,892		; PIEDRA
      12.  00:8CFB  06 00 01 00 D8 E5 71 03 04 00 10 E7 90 03 91 03 
      12.  00:8D0B  92 03 7C 03 
      13.  00:8D0F                      				dw		3,#E5A2,868,869,870,5,#E620,875,876,877,8,866 ; CACTUS 1
      13.  00:8D0F  03 00 A2 E5 64 03 65 03 66 03 05 00 20 E6 6B 03 
      13.  00:8D1F  6C 03 6D 03 08 00 62 03 
      14.  00:8D27                      				dw		5,#E6A0,896,897,898,899,867,3,#E722,900,901,902 ; CACTUS 2
      14.  00:8D27  05 00 A0 E6 80 03 81 03 82 03 83 03 63 03 03 00 
      14.  00:8D37  22 E7 84 03 85 03 86 03 
      15.  00:8D3F                      				
      16.  00:8D3F                      RELACION_TILES_B_PANTALLA_15:
      17.  00:8D3F                      
      18.  00:8D3F                      				dw		2,3,#E692,952,953,954,3,#E712,955,956,957		; PIEDRA CUADRADA ALTA
      18.  00:8D3F  02 00 03 00 92 E6 B8 03 B9 03 BA 03 03 00 12 E7 
      18.  00:8D4F  BB 03 BC 03 BD 03 
      19.  00:8D55                      				
      20.  00:8D55                      RELACION_TILES_B_PANTALLA_19:
      21.  00:8D55                      
      22.  00:8D55                      				dw		2,1,#E600,881,3,#E738,912,913,914
      22.  00:8D55  02 00 01 00 00 E6 71 03 03 00 38 E7 90 03 91 03 
      22.  00:8D65  92 03 
      23.  00:8D67                      
      24.  00:8D67                      RELACION_TILES_B_PANTALLA_20:
      25.  00:8D67                      
      26.  00:8D67                      				dw		8,3,#E6aa,906,907,908,3,#E72a,909,910,911 	; RAMA
      26.  00:8D67  08 00 03 00 AA E6 8A 03 8B 03 8C 03 03 00 2A E7 
      26.  00:8D77  8D 03 8E 03 8F 03 
      27.  00:8D7D                      				dw		3,#E69A,952,953,954,3,#E71A,955,956,957
      27.  00:8D7D  03 00 9A E6 B8 03 B9 03 BA 03 03 00 1A E7 BB 03 
      27.  00:8D8D  BC 03 BD 03 
      28.  00:8D91                      				dw		3,#E5B2,868,869,870,5,#E630,875,876,877,8,866 ; CACTUS 1
      28.  00:8D91  03 00 B2 E5 64 03 65 03 66 03 05 00 30 E6 6B 03 
      28.  00:8DA1  6C 03 6D 03 08 00 62 03 
      29.  00:8DA9                      				dw		5,#E6B0,896,897,898,899,867,3,#E732,900,901,902 ; CACTUS 2
      29.  00:8DA9  05 00 B0 E6 80 03 81 03 82 03 83 03 63 03 03 00 
      29.  00:8DB9  32 E7 84 03 85 03 86 03 
      30.  00:8DC1                      
      31.  00:8DC1                      RELACION_TILES_B_PANTALLA_21:
      32.  00:8DC1                      
      33.  00:8DC1                      				dw		5,3,#E68A,906,907,908,3,#E70A,909,910,911
      33.  00:8DC1  05 00 03 00 8A E6 8A 03 8B 03 8C 03 03 00 0A E7 
      33.  00:8DD1  8D 03 8E 03 8F 03 
      34.  00:8DD7                      				dw		2,#E722,958,959
      34.  00:8DD7  02 00 22 E7 BE 03 BF 03 
      35.  00:8DDF                      				dw		3,#E6B2,952,953,954,3,#E732,955,956,957		; PIEDRA CUADRADA ALTA
      35.  00:8DDF  03 00 B2 E6 B8 03 B9 03 BA 03 03 00 32 E7 BB 03 
      35.  00:8DEF  BC 03 BD 03 
      36.  00:8DF3                      
      37.  00:8DF3                      RELACION_TILES_B_PANTALLA_22:
      38.  00:8DF3                      
      39.  00:8DF3                      				dw		5,3,#E692,906,907,908,3,#E712,909,910,911	; RAMA
      39.  00:8DF3  05 00 03 00 92 E6 8A 03 8B 03 8C 03 03 00 12 E7 
      39.  00:8E03  8D 03 8E 03 8F 03 
      40.  00:8E09                      				dw		1,#E5F8,881,4,#E730,912,913,914,892			; PIEDRA
      40.  00:8E09  01 00 F8 E5 71 03 04 00 30 E7 90 03 91 03 92 03 
      40.  00:8E19  7C 03 
      41.  00:8E1B                      				
      42.  00:8E1B                      RELACION_TILES_B_PANTALLA_23:
      43.  00:8E1B                      
      44.  00:8E1B                      				dw		6,3,#E6A2,952,953,954,3,#E722,955,956,957	; PIEDRA CUADRADA ALTA
      44.  00:8E1B  06 00 03 00 A2 E6 B8 03 B9 03 BA 03 03 00 22 E7 
      44.  00:8E2B  BB 03 BC 03 BD 03 
      45.  00:8E31                      				dw		1,#E5D8,881,4,#E710,912,913,914,892			; PIEDRA
      45.  00:8E31  01 00 D8 E5 71 03 04 00 10 E7 90 03 91 03 92 03 
      45.  00:8E41  7C 03 
      46.  00:8E43                      				dw		1,#E600,881,3,#E738,912,913,914			; PIEDRA
      46.  00:8E43  01 00 00 E6 71 03 03 00 38 E7 90 03 91 03 92 03 
      47.  00:8E53                      				
      48.  00:8E53                      RELACION_TILES_B_PANTALLA_24:
      49.  00:8E53                      
      50.  00:8E53                      				dw		2,3,#E688,952,953,954,3,#E708,955,956,957	; PIEDRA CUADRADA ALTA
      50.  00:8E53  02 00 03 00 88 E6 B8 03 B9 03 BA 03 03 00 08 E7 
      50.  00:8E63  BB 03 BC 03 BD 03 
      51.  00:8E69                      				
      52.  00:8E69                      RELACION_TILES_B_PANTALLA_27:
      53.  00:8E69                      
      54.  00:8E69                      				dw		1,2,#E52A,958,959		; PIEDRA PEQUEÑA CUADRADA
      54.  00:8E69  01 00 02 00 2A E5 BE 03 BF 03 
      55.  00:8E73                      				
      56.  00:8E73                      RELACION_TILES_B_PANTALLA_28:
      57.  00:8E73                      
      58.  00:8E73                      				dw		1,2,#E50A,958,959		; PIEDRA PEQUEÑA CUADRADA
      58.  00:8E73  01 00 02 00 0A E5 BE 03 BF 03 
      59.  00:8E7D                      				
      60.  00:8E7D                      RELACION_TILES_B_PANTALLA_29:
      61.  00:8E7D                      
      62.  00:8E7D                      				dw		2,11,#E690,945,946,945,946,945,946,945,946,945,946,945,10,#E710,944,944,944,944,944,944,944,944,944,944	; AGUA
      62.  00:8E7D  02 00 0B 00 90 E6 B1 03 B2 03 B1 03 B2 03 B1 03 
      62.  00:8E8D  B2 03 B1 03 B2 03 B1 03 B2 03 B1 03 0A 00 10 E7 
      62.  00:8E9D  B0 03 B0 03 B0 03 B0 03 B0 03 B0 03 B0 03 B0 03 
      62.  00:8EAD  B0 03 B0 03 
      63.  00:8EB1                      								
      64.  00:8EB1                      RELACION_TILES_B_PANTALLA_35:
      65.  00:8EB1                      
      66.  00:8EB1                      				dw		2,3,#E6A8,952,953,954,3,#E728,955,956,957		; PIEDRA CUADRADA ALTA
      66.  00:8EB1  02 00 03 00 A8 E6 B8 03 B9 03 BA 03 03 00 28 E7 
      66.  00:8EC1  BB 03 BC 03 BD 03 
      67.  00:8EC7                      				
      68.  00:8EC7                      RELACION_TILES_B_PANTALLA_42:
      69.  00:8EC7                      
      70.  00:8EC7                      				dw		1,2,#E51A,958,959		; PIEDRA PEQUEÑA CUADRADA
      70.  00:8EC7  01 00 02 00 1A E5 BE 03 BF 03 
      71.  00:8ED1                      								
      72.  00:8ED1                      RELACION_TILES_B_PANTALLA_51:
      73.  00:8ED1                      
      74.  00:8ED1                      				dw		1,2,#E51A,958,959		; PIEDRA PEQUEÑA CUADRADA
      74.  00:8ED1  01 00 02 00 1A E5 BE 03 BF 03 
      75.  00:8EDB                      				
      76.  00:8EDB                      RELACION_TILES_B_PANTALLA_52:
      77.  00:8EDB                      
      78.  00:8EDB                      				dw		2,3,#E698,952,953,954,3,#E718,955,956,957		; PIEDRA CUADRADA ALTA
      78.  00:8EDB  02 00 03 00 98 E6 B8 03 B9 03 BA 03 03 00 18 E7 
      78.  00:8EEB  BB 03 BC 03 BD 03 
      79.  00:8EF1                      								
      80.  00:8EF1                      RELACION_TILES_B_PANTALLA_55:
      81.  00:8EF1                      
      82.  00:8EF1                      				dw		9,4,#E4A8,949,950,950,951,4,#E528,885,885,885,885
      82.  00:8EF1  09 00 04 00 A8 E4 B5 03 B6 03 B6 03 B7 03 04 00 
      82.  00:8F01  28 E5 75 03 75 03 75 03 75 03 
      83.  00:8F0B                      				dw		4,#E5A8,885,885,885,885,4,#E628,885,885,885,885
      83.  00:8F0B  04 00 A8 E5 75 03 75 03 75 03 75 03 04 00 28 E6 
      83.  00:8F1B  75 03 75 03 75 03 75 03 
      84.  00:8F23                      				dw		4,#E6A8,885,885,885,885,4,#E728,915,916,917,917
      84.  00:8F23  04 00 A8 E6 75 03 75 03 75 03 75 03 04 00 28 E7 
      84.  00:8F33  93 03 94 03 95 03 95 03 
      85.  00:8F3B                      				dw		4,#E618,949,950,950,951,4,#E698,885,885,885,885
      85.  00:8F3B  04 00 18 E6 B5 03 B6 03 B6 03 B7 03 04 00 98 E6 
      85.  00:8F4B  75 03 75 03 75 03 75 03 
      86.  00:8F53                      				dw		4,#E718,915,916,916,917
      86.  00:8F53  04 00 18 E7 93 03 94 03 94 03 95 03 
      87.  00:8F5F                      				
      88.  00:8F5F                      RELACION_TILES_B_PANTALLA_64:
      89.  00:8F5F                      
      90.  00:8F5F                      				dw		1,2,#E516,958,959		; PIEDRA PEQUEÑA CUADRADA
      90.  00:8F5F  01 00 02 00 16 E5 BE 03 BF 03 
      91.  00:8F69                      				
      92.  00:8F69                      RELACION_TILES_B_PANTALLA_66:
      93.  00:8F69                      
      94.  00:8F69                      				dw		1,2,#E50C,864,865		; CADAVERA
      94.  00:8F69  01 00 02 00 0C E5 60 03 61 03 
      95.  00:8F73                      								
      96.  00:8F73                      RELACION_TILES_B_PANTALLA_69:
      97.  00:8F73                      
      98.  00:8F73                      				dw		7,3,#E1AA,935,936,8,3,#E22A,932,933,934,3,#e2AA,964,965,966,3,#E32A,964,965,966
      98.  00:8F73  07 00 03 00 AA E1 A7 03 A8 03 08 00 03 00 2A E2 
      98.  00:8F83  A4 03 A5 03 A6 03 03 00 AA E2 C4 03 C5 03 C6 03 
      98.  00:8F93  03 00 2A E3 C4 03 C5 03 C6 03 
      99.  00:8F9D                      				dw		3,#E21A,934,934,934,3,#E29A,964,965,966,3,#E31A,964,965,966
      99.  00:8F9D  03 00 1A E2 A6 03 A6 03 A6 03 03 00 9A E2 C4 03 
      99.  00:8FAD  C5 03 C6 03 03 00 1A E3 C4 03 C5 03 C6 03 
     100.  00:8FBB                      
     101.  00:8FBB                      DATAS_PUENTE:
     102.  00:8FBB                      
     103.  00:8FBB                      				dw		2,4,#E690,921,922,923,924,4,#E710,925,926,927,928
     103.  00:8FBB  02 00 04 00 90 E6 99 03 9A 03 9B 03 9C 03 04 00 
     103.  00:8FCB  10 E7 9D 03 9E 03 9F 03 A0 03 
    4372   00:8FD5                      				
    4373   00:8FD5                      RELACION_PARTE_VRAM_POS_SCROLL:
    4374   00:8FD5                      
    4375   00:8FD5                      				include "TABLAS/TABLA POSICIONES SCROLL.asm"
       1.  00:8FD5  00 00 00 00         				dw		0,0
       2.  00:8FD9  00 00 00 00         				dw		0,0
       3.  00:8FDD  00 20 00 00         				dw		256*32,0
       4.  00:8FE1  00 00 80 00         				dw		0,128
       5.  00:8FE5  00 20 80 00         				dw		256*32,128
       6.  00:8FE9  00 00 00 01         				dw		0,256
       7.  00:8FED  00 20 00 01         				dw		256*32,256
       8.  00:8FF1  00 00 80 01         				dw		0,384
       9.  00:8FF5  00 20 80 01         				dw		256*32,384
    4376   00:8FF9                      
    4377   00:8FF9                      RELACION_POSICION_VRAM_A_PINTAR:
    4378   00:8FF9                      
    4379   00:8FF9                      				include "TABLAS/TABLA POSICION PINTA VRAM.asm"
       1.  00:8FF9  00 00               				dw		00
       2.  00:8FFB                      
       3.  00:8FFB  00 D8               				dw		#d800 ; Mitad 		pantalla 3
       4.  00:8FFD  40 D8               				dw		#d840 ; Mitad 		pantalla 4
       5.  00:8FFF  00 C0               				dw		#c000 ; Comienzo 	pantalla 1
       6.  00:9001  40 C0               				dw		#c040 ; Comienzo 	pantalla 2
       7.  00:9003  00 C8               				dw		#c800 ; Mitad 		pantalla 1
       8.  00:9005  40 C8               				dw		#c840 ; Mitad 		pantalla 2
       9.  00:9007  00 D0               				dw		#d000 ; Comienzo 	pantalla 3
      10.  00:9009  40 D0               				dw		#d040 ; Comienzo	pantalla 4
      11.  00:900B                      
      12.  00:900B  40 C0               				dw		#c040 ; Comienzo 	pantalla 2
      13.  00:900D  00 C0               				dw		#c000 ; Comienzo 	pantalla 1
      14.  00:900F  40 C8               				dw		#c840 ; Mitad 		pantalla 2
      15.  00:9011  00 C8               				dw		#c800 ; Mitad 		pantalla 1
      16.  00:9013  40 D0               				dw		#d040 ; Comienzo	pantalla 4
      17.  00:9015  00 D0               				dw		#d000 ; Comienzo 	pantalla 3
      18.  00:9017  40 D8               				dw		#d840 ; Mitad 		pantalla 4
      19.  00:9019  00 D8               				dw		#d800 ; Mitad 		pantalla 3
      20.  00:901B                      
      21.  00:901B  00 C8               				dw		#c800 ; Mitad 		pantalla 1
      22.  00:901D  40 C8               				dw		#c840 ; Mitad 		pantalla 2
      23.  00:901F  00 D0               				dw		#d000 ; Comienzo 	pantalla 3
      24.  00:9021  40 D0               				dw		#d040 ; Comienzo	pantalla 4
      25.  00:9023  00 D8               				dw		#d800 ; Mitad 		pantalla 3
      26.  00:9025  40 D8               				dw		#d840 ; Mitad 		pantalla 4
      27.  00:9027  00 C0               				dw		#c000 ; Comienzo 	pantalla 1
      28.  00:9029  40 C0               				dw		#c040 ; Comienzo 	pantalla 2
      29.  00:902B                      				
      30.  00:902B                      				dw		7,8,1,2,3,4,5,6,2,1,4,3,6,5,8,7,3,4,5,6,7,8,1,2
      30.  00:902B  07 00 08 00 01 00 02 00 03 00 04 00 05 00 06 00 
      30.  00:903B  02 00 01 00 04 00 03 00 06 00 05 00 08 00 07 00 
      30.  00:904B  03 00 04 00 05 00 06 00 07 00 08 00 01 00 02 00 
    4380   00:905B                      
    4381   00:905B                      RELACION_TILE_HYPERTILE:
    4382   00:905B                      				include "TABLAS/TABLA REFERENCIA HYPERTILES.asm"
       1.  00:905B  00 00               				dw		0
       2.  00:905D  04 00               				dw		4
       3.  00:905F  08 00               				dw		8
       4.  00:9061  0C 00               				dw		12
       5.  00:9063  10 00               				dw		16
       6.  00:9065  14 00               				dw		20
       7.  00:9067  18 00               				dw		24
       8.  00:9069  1C 00               				dw		28
       9.  00:906B                      
      10.  00:906B  80 00               				dw		0+32*4
      11.  00:906D  84 00               				dw		4+32*4
      12.  00:906F  88 00               				dw		8+32*4
      13.  00:9071  8C 00               				dw		12+32*4
      14.  00:9073  90 00               				dw		16+32*4
      15.  00:9075  94 00               				dw		20+32*4
      16.  00:9077  98 00               				dw		24+32*4
      17.  00:9079  9C 00               				dw		28+32*4
      18.  00:907B                      
      19.  00:907B  00 01               				dw		0+32*8
      20.  00:907D  04 01               				dw		4+32*8
      21.  00:907F  08 01               				dw		8+32*8
      22.  00:9081  0C 01               				dw		12+32*8
      23.  00:9083  10 01               				dw		16+32*8
      24.  00:9085  14 01               				dw		20+32*8
      25.  00:9087  18 01               				dw		24+32*8
      26.  00:9089  1C 01               				dw		28+32*8
      27.  00:908B                      
      28.  00:908B  80 01               				dw		0+32*12
      29.  00:908D  84 01               				dw		4+32*12
      30.  00:908F  88 01               				dw		8+32*12
      31.  00:9091  8C 01               				dw		12+32*12
      32.  00:9093  90 01               				dw		16+32*12
      33.  00:9095  94 01               				dw		20+32*12
      34.  00:9097  98 01               				dw		24+32*12
      35.  00:9099  9C 01               				dw		28+32*12
      36.  00:909B                      
      37.  00:909B  00 02               				dw		0+32*16
      38.  00:909D  04 02               				dw		4+32*16
      39.  00:909F  08 02               				dw		8+32*16
      40.  00:90A1  0C 02               				dw		12+32*16
      41.  00:90A3  10 02               				dw		16+32*16
      42.  00:90A5  14 02               				dw		20+32*16
      43.  00:90A7  18 02               				dw		24+32*16
      44.  00:90A9  1C 02               				dw		28+32*16
      45.  00:90AB                      
      46.  00:90AB  80 02               				dw		0+32*20
      47.  00:90AD  84 02               				dw		4+32*20
      48.  00:90AF  88 02               				dw		8+32*20
      49.  00:90B1  8C 02               				dw		12+32*20
      50.  00:90B3  90 02               				dw		16+32*20
      51.  00:90B5  94 02               				dw		20+32*20
      52.  00:90B7  98 02               				dw		24+32*20
      53.  00:90B9  9C 02               				dw		28+32*20
      54.  00:90BB                      
      55.  00:90BB  00 03               				dw		0+32*24
      56.  00:90BD  04 03               				dw		4+32*24
      57.  00:90BF  08 03               				dw		8+32*24
      58.  00:90C1  0C 03               				dw		12+32*24
      59.  00:90C3  10 03               				dw		16+32*24
      60.  00:90C5  14 03               				dw		20+32*24
      61.  00:90C7  18 03               				dw		24+32*24
      62.  00:90C9  1C 03               				dw		28+32*24
      63.  00:90CB                      
      64.  00:90CB  80 03               				dw		0+32*28
      65.  00:90CD  84 03               				dw		4+32*28
      66.  00:90CF  88 03               				dw		8+32*28
      67.  00:90D1  8C 03               				dw		12+32*28
      68.  00:90D3  90 03               				dw		16+32*28
      69.  00:90D5  94 03               				dw		20+32*28
      70.  00:90D7  98 03               				dw		24+32*28
      71.  00:90D9  9C 03               				dw		28+32*28
      72.  00:90DB                      
      73.  00:90DB  00 04               				dw		0+32*32
      74.  00:90DD  04 04               				dw		4+32*32
      75.  00:90DF  08 04               				dw		8+32*32
      76.  00:90E1  0C 04               				dw		12+32*32
      77.  00:90E3  10 04               				dw		16+32*32
      78.  00:90E5  14 04               				dw		20+32*32
      79.  00:90E7  18 04               				dw		24+32*32
      80.  00:90E9  1C 04               				dw		28+32*32
      81.  00:90EB                      
      82.  00:90EB  80 04               				dw		0+32*36
      83.  00:90ED  84 04               				dw		4+32*36
      84.  00:90EF  88 04               				dw		8+32*36
      85.  00:90F1  8C 04               				dw		12+32*36
      86.  00:90F3  90 04               				dw		16+32*36
      87.  00:90F5  94 04               				dw		20+32*36
      88.  00:90F7  98 04               				dw		24+32*36
      89.  00:90F9  9C 04               				dw		28+32*36
      90.  00:90FB                      
      91.  00:90FB  00 05               				dw		0+32*40
      92.  00:90FD  04 05               				dw		4+32*40
      93.  00:90FF  08 05               				dw		8+32*40
      94.  00:9101  0C 05               				dw		12+32*40
      95.  00:9103  10 05               				dw		16+32*40
      96.  00:9105  14 05               				dw		20+32*40
      97.  00:9107  18 05               				dw		24+32*40
      98.  00:9109  1C 05               				dw		28+32*40
      99.  00:910B                      
     100.  00:910B  80 05               				dw		0+32*44
     101.  00:910D  84 05               				dw		4+32*44
     102.  00:910F  88 05               				dw		8+32*44
     103.  00:9111  8C 05               				dw		12+32*44
     104.  00:9113  90 05               				dw		16+32*44
     105.  00:9115  94 05               				dw		20+32*44
     106.  00:9117  98 05               				dw		24+32*44
     107.  00:9119  9C 05               				dw		28+32*44
     108.  00:911B                      
     109.  00:911B  00 06               				dw		0+32*48
     110.  00:911D  04 06               				dw		4+32*48
     111.  00:911F  08 06               				dw		8+32*48
     112.  00:9121  0C 06               				dw		12+32*48
     113.  00:9123  10 06               				dw		16+32*48
     114.  00:9125  14 06               				dw		20+32*48
     115.  00:9127  18 06               				dw		24+32*48
     116.  00:9129  1C 06               				dw		28+32*48
     117.  00:912B                      
     118.  00:912B  80 06               				dw		0+32*52
     119.  00:912D  84 06               				dw		4+32*52
     120.  00:912F  88 06               				dw		8+32*52
     121.  00:9131  8C 06               				dw		12+32*52
     122.  00:9133  90 06               				dw		16+32*52
     123.  00:9135  94 06               				dw		20+32*52
     124.  00:9137  98 06               				dw		24+32*52
     125.  00:9139  9C 06               				dw		28+32*52
     126.  00:913B                      
     127.  00:913B  00 07               				dw		0+32*56
     128.  00:913D  04 07               				dw		4+32*56
     129.  00:913F  08 07               				dw		8+32*56
     130.  00:9141  0C 07               				dw		12+32*56
     131.  00:9143  10 07               				dw		16+32*56
     132.  00:9145  14 07               				dw		20+32*56
     133.  00:9147  18 07               				dw		24+32*56
     134.  00:9149  1C 07               				dw		28+32*56
     135.  00:914B                      
     136.  00:914B  80 07               				dw		0+32*60
     137.  00:914D  84 07               				dw		4+32*60
     138.  00:914F  88 07               				dw		8+32*60
     139.  00:9151  8C 07               				dw		12+32*60
     140.  00:9153  90 07               				dw		16+32*60
     141.  00:9155  94 07               				dw		20+32*60
     142.  00:9157  98 07               				dw		24+32*60
     143.  00:9159  9C 07               				dw		28+32*60
     144.  00:915B                      
     145.  00:915B  00 08               				dw		0+32*64
     146.  00:915D  04 08               				dw		4+32*64
     147.  00:915F  08 08               				dw		8+32*64
     148.  00:9161  0C 08               				dw		12+32*64
     149.  00:9163  10 08               				dw		16+32*64
     150.  00:9165  14 08               				dw		20+32*64
     151.  00:9167  18 08               				dw		24+32*64
     152.  00:9169  1C 08               				dw		28+32*64
     153.  00:916B                      
     154.  00:916B  80 08               				dw		0+32*68
     155.  00:916D  84 08               				dw		4+32*68
     156.  00:916F  88 08               				dw		8+32*68
     157.  00:9171  8C 08               				dw		12+32*68
     158.  00:9173  90 08               				dw		16+32*68
     159.  00:9175  94 08               				dw		20+32*68
     160.  00:9177  98 08               				dw		24+32*68
     161.  00:9179  9C 08               				dw		28+32*68
     162.  00:917B                      
     163.  00:917B  00 09               				dw		0+32*72
     164.  00:917D  04 09               				dw		4+32*72
     165.  00:917F  08 09               				dw		8+32*72
     166.  00:9181  0C 09               				dw		12+32*72
     167.  00:9183  10 09               				dw		16+32*72
     168.  00:9185  14 09               				dw		20+32*72
     169.  00:9187  18 09               				dw		24+32*72
     170.  00:9189  1C 09               				dw		28+32*72
     171.  00:918B                      
     172.  00:918B  80 09               				dw		0+32*76
     173.  00:918D  84 09               				dw		4+32*76
     174.  00:918F  88 09               				dw		8+32*76
     175.  00:9191  8C 09               				dw		12+32*76
     176.  00:9193  90 09               				dw		16+32*76
     177.  00:9195  94 09               				dw		20+32*76
     178.  00:9197  98 09               				dw		24+32*76
     179.  00:9199  9C 09               				dw		28+32*76
     180.  00:919B                      
     181.  00:919B  00 0A               				dw		0+32*80
     182.  00:919D  04 0A               				dw		4+32*80
     183.  00:919F  08 0A               				dw		8+32*80
     184.  00:91A1  0C 0A               				dw		12+32*80
     185.  00:91A3  10 0A               				dw		16+32*80
     186.  00:91A5  14 0A               				dw		20+32*80
     187.  00:91A7  18 0A               				dw		24+32*80
     188.  00:91A9  1C 0A               				dw		28+32*80
     189.  00:91AB                      
     190.  00:91AB  80 0A               				dw		0+32*84
     191.  00:91AD  84 0A               				dw		4+32*84
     192.  00:91AF  88 0A               				dw		8+32*84
     193.  00:91B1  8C 0A               				dw		12+32*84
     194.  00:91B3  90 0A               				dw		16+32*84
     195.  00:91B5  94 0A               				dw		20+32*84
     196.  00:91B7  98 0A               				dw		24+32*84
     197.  00:91B9  9C 0A               				dw		28+32*84
     198.  00:91BB                      
     199.  00:91BB  00 0B               				dw		0+32*88
     200.  00:91BD  04 0B               				dw		4+32*88
     201.  00:91BF  08 0B               				dw		8+32*88
     202.  00:91C1  0C 0B               				dw		12+32*88
     203.  00:91C3  10 0B               				dw		16+32*88
     204.  00:91C5  14 0B               				dw		20+32*88
     205.  00:91C7  18 0B               				dw		24+32*88
     206.  00:91C9  1C 0B               				dw		28+32*88
     207.  00:91CB                      
     208.  00:91CB  80 0B               				dw		0+32*92
     209.  00:91CD  84 0B               				dw		4+32*92
     210.  00:91CF  88 0B               				dw		8+32*92
     211.  00:91D1  8C 0B               				dw		12+32*92
     212.  00:91D3  90 0B               				dw		16+32*92
     213.  00:91D5  94 0B               				dw		20+32*92
     214.  00:91D7  98 0B               				dw		24+32*92
     215.  00:91D9  9C 0B               				dw		28+32*92
     216.  00:91DB                      
     217.  00:91DB  00 0C               				dw		0+32*96
     218.  00:91DD  04 0C               				dw		4+32*96
     219.  00:91DF  08 0C               				dw		8+32*96
     220.  00:91E1  0C 0C               				dw		12+32*96
     221.  00:91E3  10 0C               				dw		16+32*96
     222.  00:91E5  14 0C               				dw		20+32*96
     223.  00:91E7  18 0C               				dw		24+32*96
     224.  00:91E9  1C 0C               				dw		28+32*96
     225.  00:91EB                      
     226.  00:91EB  80 0C               				dw		0+32*100
     227.  00:91ED  84 0C               				dw		4+32*100
     228.  00:91EF  88 0C               				dw		8+32*100
     229.  00:91F1  8C 0C               				dw		12+32*100
     230.  00:91F3  90 0C               				dw		16+32*100
     231.  00:91F5  94 0C               				dw		20+32*100
     232.  00:91F7  98 0C               				dw		24+32*100
     233.  00:91F9  9C 0C               				dw		28+32*100
     234.  00:91FB                      
     235.  00:91FB  00 0D               				dw		0+32*104
     236.  00:91FD  04 0D               				dw		4+32*104
     237.  00:91FF  08 0D               				dw		8+32*104
     238.  00:9201  0C 0D               				dw		12+32*104
     239.  00:9203  10 0D               				dw		16+32*104
     240.  00:9205  14 0D               				dw		20+32*104
     241.  00:9207  18 0D               				dw		24+32*104
     242.  00:9209  1C 0D               				dw		28+32*104
     243.  00:920B                      
     244.  00:920B  80 0D               				dw		0+32*108
     245.  00:920D  84 0D               				dw		4+32*108
     246.  00:920F  88 0D               				dw		8+32*108
     247.  00:9211  8C 0D               				dw		12+32*108
     248.  00:9213  90 0D               				dw		16+32*108
     249.  00:9215  94 0D               				dw		20+32*108
     250.  00:9217  98 0D               				dw		24+32*108
     251.  00:9219  9C 0D               				dw		28+32*108
     252.  00:921B                      
     253.  00:921B  00 0E               				dw		0+32*112
     254.  00:921D  04 0E               				dw		4+32*112
     255.  00:921F  08 0E               				dw		8+32*112
     256.  00:9221  0C 0E               				dw		12+32*112
     257.  00:9223  10 0E               				dw		16+32*112
     258.  00:9225  14 0E               				dw		20+32*112
     259.  00:9227  18 0E               				dw		24+32*112
     260.  00:9229  1C 0E               				dw		28+32*112
    4383   00:922B                      
    4384   00:922B                      RELACION_PANTALLA_TILE:
    4385   00:922B                      				include	"TABLAS/TABLA REFERENCIA MAPA.asm"
       1.  00:922B  00 00               				dw		0
       2.  00:922D  08 00               				dw		8
       3.  00:922F  10 00               				dw		16
       4.  00:9231  18 00               				dw		24
       5.  00:9233  20 00               				dw		32
       6.  00:9235  28 00               				dw		40
       7.  00:9237  30 00               				dw		48
       8.  00:9239  38 00               				dw		56
       9.  00:923B  40 00               				dw		64
      10.  00:923D  48 00               				dw		72
      11.  00:923F  50 00               				dw		80
      12.  00:9241  58 00               				dw		88
      13.  00:9243                      
      14.  00:9243  80 01               				dw		0+96*4
      15.  00:9245  88 01               				dw		8+96*4
      16.  00:9247  90 01               				dw		16+96*4
      17.  00:9249  98 01               				dw		24+96*4
      18.  00:924B  A0 01               				dw		32+96*4
      19.  00:924D  A8 01               				dw		40+96*4
      20.  00:924F  B0 01               				dw		48+96*4
      21.  00:9251  B8 01               				dw		56+96*4
      22.  00:9253  C0 01               				dw		64+96*4 ;(448)
      23.  00:9255  C8 01               				dw		72+96*4
      24.  00:9257  D0 01               				dw		80+96*4
      25.  00:9259  D8 01               				dw		88+96*4
      26.  00:925B                      				
      27.  00:925B  00 03               				dw		0+96*8
      28.  00:925D  08 03               				dw		8+96*8
      29.  00:925F  10 03               				dw		16+96*8
      30.  00:9261  18 03               				dw		24+96*8
      31.  00:9263  20 03               				dw		32+96*8
      32.  00:9265  28 03               				dw		40+96*8
      33.  00:9267  30 03               				dw		48+96*8
      34.  00:9269  38 03               				dw		56+96*8
      35.  00:926B  40 03               				dw		64+96*8
      36.  00:926D  48 03               				dw		72+96*8
      37.  00:926F  50 03               				dw		80+96*8
      38.  00:9271  58 03               				dw		88+96*8
      39.  00:9273                      				
      40.  00:9273  80 04               				dw		0+96*12
      41.  00:9275  88 04               				dw		8+96*12
      42.  00:9277  90 04               				dw		16+96*12
      43.  00:9279  98 04               				dw		24+96*12
      44.  00:927B  A0 04               				dw		32+96*12
      45.  00:927D  A8 04               				dw		40+96*12
      46.  00:927F  B0 04               				dw		48+96*12
      47.  00:9281  B8 04               				dw		56+96*12
      48.  00:9283  C0 04               				dw		64+96*12
      49.  00:9285  C8 04               				dw		72+96*12
      50.  00:9287  D0 04               				dw		80+96*12
      51.  00:9289  D8 04               				dw		88+96*12
      52.  00:928B                      				
      53.  00:928B  00 06               				dw		0+96*16
      54.  00:928D  08 06               				dw		8+96*16
      55.  00:928F  10 06               				dw		16+96*16
      56.  00:9291  18 06               				dw		24+96*16
      57.  00:9293  20 06               				dw		32+96*16
      58.  00:9295  28 06               				dw		40+96*16
      59.  00:9297  30 06               				dw		48+96*16
      60.  00:9299  38 06               				dw		56+96*16
      61.  00:929B  40 06               				dw		64+96*16
      62.  00:929D  48 06               				dw		72+96*16
      63.  00:929F  50 06               				dw		80+96*16
      64.  00:92A1  58 06               				dw		88+96*16
      65.  00:92A3                      				
      66.  00:92A3  80 07               				dw		0+96*20
      67.  00:92A5  88 07               				dw		8+96*20
      68.  00:92A7  90 07               				dw		16+96*20
      69.  00:92A9  98 07               				dw		24+96*20
      70.  00:92AB  A0 07               				dw		32+96*20
      71.  00:92AD  A8 07               				dw		40+96*20
      72.  00:92AF  B0 07               				dw		48+96*20
      73.  00:92B1  B8 07               				dw		56+96*20
      74.  00:92B3  C0 07               				dw		64+96*20
      75.  00:92B5  C8 07               				dw		72+96*20
      76.  00:92B7  D0 07               				dw		80+96*20
      77.  00:92B9  D8 07               				dw		88+96*20
    4386   00:92BB                      
    4387   00:92BB                      MAPA:
    4388   00:92BB                      				include	"MAPAS/MAPA.asm"
       1.  00:92BB                          db      0,0,65,26,0,0,27,0,0,0,27,0,0,0,0,0,0,0,0,0,0,0,0,0,0,0,0,50,76,76,51,0,0,0,0,0,0,0,0,0,0,0,0,0,0,0,0,0,0,17,6,6,6,6,6,6,0,26,0,0,0,0,0,0,64,0,27,0,0,0,0,27,0,50,52,51,0,27,0,0,0,26,0,0,27,0,65,26,0,27,0,27,0,0,0,0
       1.  00:92BB  00 00 41 1A 00 00 1B 00 00 00 1B 00 00 00 00 00 
       1.  00:92CB  00 00 00 00 00 00 00 00 00 00 00 32 4C 4C 33 00 
       1.  00:92DB  00 00 00 00 00 00 00 00 00 00 00 00 00 00 00 00 
       1.  00:92EB  00 11 06 06 06 06 06 06 00 1A 00 00 00 00 00 00 
       1.  00:92FB  40 00 1B 00 00 00 00 1B 00 32 34 33 00 1B 00 00 
       1.  00:930B  00 1A 00 00 1B 00 41 1A 00 1B 00 1B 00 00 00 00 
       2.  00:931B                          db      50,52,82,0,27,65,0,0,0,0,0,0,0,50,76,51,0,0,0,0,0,0,0,0,0,27,0,0,27,0,0,0,0,0,0,0,0,0,0,0,0,0,0,0,0,0,0,0,0,17,6,6,6,6,6,6,0,0,0,27,0,0,0,50,59,51,0,26,0,65,0,0,27,0,64,0,0,53,54,54,54,57,62,54,54,57,152,54,75,79,0,0,0,0,26,0
       2.  00:931B  32 34 52 00 1B 41 00 00 00 00 00 00 00 32 4C 33 
       2.  00:932B  00 00 00 00 00 00 00 00 00 1B 00 00 1B 00 00 00 
       2.  00:933B  00 00 00 00 00 00 00 00 00 00 00 00 00 00 00 00 
       2.  00:934B  00 11 06 06 06 06 06 06 00 00 00 1B 00 00 00 32 
       2.  00:935B  3B 33 00 1A 00 41 00 00 1B 00 40 00 00 35 36 36 
       2.  00:936B  36 39 3E 36 36 39 98 36 4B 4F 00 00 00 00 1A 00 
       3.  00:937B                          db      0,53,56,54,54,56,57,58,61,62,79,0,0,0,0,0,0,0,0,0,0,0,0,0,0,0,0,0,0,0,9,21,21,21,21,21,21,21,10,0,0,0,0,0,0,0,0,0,0,17,6,6,6,6,6,6,21,33,0,0,53,55,27,0,0,0,0,0,0,64,0,0,0,53,81,58,52,52,52,52,52,72,68,72,71,63,64,63,74,0,77,52,61,62,55,0
       3.  00:937B  00 35 38 36 36 38 39 3A 3D 3E 4F 00 00 00 00 00 
       3.  00:938B  00 00 00 00 00 00 00 00 00 00 00 00 00 00 09 15 
       3.  00:939B  15 15 15 15 15 15 0A 00 00 00 00 00 00 00 00 00 
       3.  00:93AB  00 11 06 06 06 06 06 06 15 21 00 00 35 37 1B 00 
       3.  00:93BB  00 00 00 00 00 40 00 00 00 35 51 3A 34 34 34 34 
       3.  00:93CB  34 48 44 48 47 3F 40 3F 4A 00 4D 34 3D 3E 37 00 
       4.  00:93DB                          db      76,76,76,76,76,76,76,76,76,76,51,0,0,26,0,0,0,0,0,0,0,0,0,0,0,0,0,26,0,25,6,6,6,6,6,6,6,6,11,0,0,0,0,0,0,0,0,0,0,17,6,6,6,6,6,6,6,6,14,27,66,70,0,0,0,0,0,50,52,59,59,59,59,59,59,59,59,59,59,59,61,62,55,0,53,54,56,57,57,58,52,59,59,59,59,52
       4.  00:93DB  4C 4C 4C 4C 4C 4C 4C 4C 4C 4C 33 00 00 1A 00 00 
       4.  00:93EB  00 00 00 00 00 00 00 00 00 00 00 1A 00 19 06 06 
       4.  00:93FB  06 06 06 06 06 06 0B 00 00 00 00 00 00 00 00 00 
       4.  00:940B  00 11 06 06 06 06 06 06 06 06 0E 1B 42 46 00 00 
       4.  00:941B  00 00 00 32 34 3B 3B 3B 3B 3B 3B 3B 3B 3B 3B 3B 
       4.  00:942B  3D 3E 37 00 35 36 38 39 39 3A 34 3B 3B 3B 3B 34 
       5.  00:943B                          db      73,72,71,74,63,63,67,68,72,71,70,0,0,26,0,0,0,0,27,0,0,0,0,27,0,27,0,0,26,7,6,6,6,6,6,6,6,6,11,0,0,0,0,0,0,0,0,0,0,105,107,107,107,107,107,106,6,6,8,26,0,0,27,0,0,26,0,0,0,0,26,0,0,26,0,0,66,67,68,72,71,63,70,0,66,74,67,68,73,72,71,63,63,63,67,68
       5.  00:943B  49 48 47 4A 3F 3F 43 44 48 47 46 00 00 1A 00 00 
       5.  00:944B  00 00 1B 00 00 00 00 1B 00 1B 00 00 1A 07 06 06 
       5.  00:945B  06 06 06 06 06 06 0B 00 00 00 00 00 00 00 00 00 
       5.  00:946B  00 69 6B 6B 6B 6B 6B 6A 06 06 08 1A 00 00 1B 00 
       5.  00:947B  00 1A 00 00 00 00 1A 00 00 1A 00 00 42 43 44 48 
       5.  00:948B  47 3F 46 00 42 4A 43 44 49 48 47 3F 3F 3F 43 44 
       6.  00:949B                          db      30,5,28,30,30,5,28,38,30,30,30,29,5,5,5,5,5,28,30,30,30,29,44,28,30,29,28,30,47,6,6,6,183,178,84,168,174,141,140,29,30,30,29,28,30,29,28,30,29,101,104,0,108,108,0,98,6,6,6,35,29,44,28,30,30,29,30,38,30,29,30,30,30,29,30,29,5,5,5,30,30,30,29,5,5,30,29,28,29,30,30,44,5,5,28,30
       6.  00:949B  1E 05 1C 1E 1E 05 1C 26 1E 1E 1E 1D 05 05 05 05 
       6.  00:94AB  05 1C 1E 1E 1E 1D 2C 1C 1E 1D 1C 1E 2F 06 06 06 
       6.  00:94BB  B7 B2 54 A8 AE 8D 8C 1D 1E 1E 1D 1C 1E 1D 1C 1E 
       6.  00:94CB  1D 65 68 00 6C 6C 00 62 06 06 06 23 1D 2C 1C 1E 
       6.  00:94DB  1E 1D 1E 26 1E 1D 1E 1E 1E 1D 1E 1D 05 05 05 1E 
       6.  00:94EB  1E 1E 1D 05 05 1E 1D 1C 1D 1E 1E 2C 05 05 1C 1E 
       7.  00:94FB                          db      1,1,4,1,31,32,34,39,45,1,1,1,1,1,45,1,1,3,45,1,3,1,40,1,1,1,42,1,46,6,6,6,183,178,179,93,129,180,181,182,1,31,34,32,1,1,31,1,1,100,103,103,202,103,102,98,6,6,6,36,1,40,49,1,1,1,3,43,34,32,3,1,1,1,1,3,1,31,1,1,1,32,31,34,32,1,31,1,1,1,1,40,1,1,1,1
       7.  00:94FB  01 01 04 01 1F 20 22 27 2D 01 01 01 01 01 2D 01 
       7.  00:950B  01 03 2D 01 03 01 28 01 01 01 2A 01 2E 06 06 06 
       7.  00:951B  B7 B2 B3 5D 81 B4 B5 B6 01 1F 22 20 01 01 1F 01 
       7.  00:952B  01 64 67 67 CA 67 66 62 06 06 06 24 01 28 31 01 
       7.  00:953B  01 01 03 2B 22 20 03 01 01 01 01 03 01 1F 01 01 
       7.  00:954B  01 20 1F 22 20 01 1F 01 01 01 01 28 01 01 01 01 
       8.  00:955B                          db      15,20,16,20,18,12,20,23,24,18,19,15,20,18,19,20,20,13,19,12,23,24,23,24,20,18,41,24,48,6,6,6,6,6,2,2,128,187,187,1,1,1,1,1,1,1,1,1,1,46,6,99,96,98,6,6,6,6,6,6,37,13,24,19,18,20,13,41,20,18,23,24,20,18,20,13,12,15,15,20,20,20,18,18,20,20,19,20,15,19,19,13,15,20,20,19
       8.  00:955B  0F 14 10 14 12 0C 14 17 18 12 13 0F 14 12 13 14 
       8.  00:956B  14 0D 13 0C 17 18 17 18 14 12 29 18 30 06 06 06 
       8.  00:957B  06 06 02 02 80 BB BB 01 01 01 01 01 01 01 01 01 
       8.  00:958B  01 2E 06 63 60 62 06 06 06 06 06 06 25 0D 18 13 
       8.  00:959B  12 14 0D 29 14 12 17 18 14 12 14 0D 0C 0F 0F 14 
       8.  00:95AB  14 14 12 12 14 14 13 14 0F 13 13 0D 0F 14 14 13 
       9.  00:95BB                          db      6,6,83,6,6,6,6,167,94,168,84,84,86,168,86,86,86,86,84,86,168,84,84,86,95,94,174,175,6,6,6,6,6,183,2,2,130,187,132,1,1,1,1,1,1,1,1,1,1,187,187,109,96,157,159,158,22,22,22,22,200,200,97,97,200,200,97,22,22,22,97,158,187,138,134,134,136,134,136,134,134,134,128,135,6,6,6,127,6,6,6,6,6,6,6,6
       9.  00:95BB  06 06 53 06 06 06 06 A7 5E A8 54 54 56 A8 56 56 
       9.  00:95CB  56 56 54 56 A8 54 54 56 5F 5E AE AF 06 06 06 06 
       9.  00:95DB  06 B7 02 02 82 BB 84 01 01 01 01 01 01 01 01 01 
       9.  00:95EB  01 BB BB 6D 60 9D 9F 9E 16 16 16 16 C8 C8 61 61 
       9.  00:95FB  C8 C8 61 16 16 16 61 9E BB 8A 86 86 88 86 88 86 
       9.  00:960B  86 86 80 87 06 06 06 7F 06 06 06 06 06 06 06 06 
      10.  00:961B                          db      2,6,83,168,84,95,94,2,2,2,2,2,2,2,2,2,2,2,2,2,2,2,2,2,2,2,2,2,2,84,84,168,84,184,2,2,186,187,133,1,1,1,1,1,1,1,1,1,139,187,187,110,96,0,0,0,0,0,108,202,103,103,202,111,0,0,0,112,121,113,0,22,187,137,2,2,2,2,2,2,2,2,2,168,174,175,6,6,167,178,176,168,174,175,6,6
      10.  00:961B  02 06 53 A8 54 5F 5E 02 02 02 02 02 02 02 02 02 
      10.  00:962B  02 02 02 02 02 02 02 02 02 02 02 02 02 54 54 A8 
      10.  00:963B  54 B8 02 02 BA BB 85 01 01 01 01 01 01 01 01 01 
      10.  00:964B  8B BB BB 6E 60 00 00 00 00 00 6C CA 67 67 CA 6F 
      10.  00:965B  00 00 00 70 79 71 00 16 BB 89 02 02 02 02 02 02 
      10.  00:966B  02 02 02 A8 AE AF 06 06 A7 B2 B0 A8 AE AF 06 06 
      11.  00:967B                          db      2,168,83,2,2,2,2,165,163,163,2,2,2,2,163,163,163,91,93,93,93,93,92,190,190,2,186,189,190,188,190,190,190,188,2,186,185,187,131,182,1,1,1,1,1,1,1,139,187,187,109,22,96,118,111,0,120,0,0,96,158,157,96,0,0,104,108,0,114,0,108,22,187,2,186,187,189,190,2,2,2,2,2,2,2,176,84,168,2,178,2,2,2,2,178,2
      11.  00:967B  02 A8 53 02 02 02 02 A5 A3 A3 02 02 02 02 A3 A3 
      11.  00:968B  A3 5B 5D 5D 5D 5D 5C BE BE 02 BA BD BE BC BE BE 
      11.  00:969B  BE BC 02 BA B9 BB 83 B6 01 01 01 01 01 01 01 8B 
      11.  00:96AB  BB BB 6D 16 60 76 6F 00 78 00 00 60 9E 9D 60 00 
      11.  00:96BB  00 68 6C 00 72 00 6C 16 BB 02 BA BB BD BE 02 02 
      11.  00:96CB  02 02 02 02 02 B0 54 A8 02 B2 02 02 02 02 B2 02 
      12.  00:96DB                          db      163,172,87,171,89,166,164,6,6,6,2,2,2,2,6,6,6,169,163,163,163,163,170,127,187,187,187,187,187,187,187,187,187,187,187,187,187,187,187,187,187,187,206,206,207,1,187,187,187,187,110,22,22,22,22,22,22,0,22,159,22,159,117,103,103,103,103,116,115,103,103,158,187,187,187,187,187,187,187,187,187,189,190,89,166,90,163,163,163,177,89,166,90,172,177,163
      12.  00:96DB  A3 AC 57 AB 59 A6 A4 06 06 06 02 02 02 02 06 06 
      12.  00:96EB  06 A9 A3 A3 A3 A3 AA 7F BB BB BB BB BB BB BB BB 
      12.  00:96FB  BB BB BB BB BB BB BB BB BB BB CE CE CF 01 BB BB 
      12.  00:970B  BB BB 6E 16 16 16 16 16 16 00 16 9F 16 9F 75 67 
      12.  00:971B  67 67 67 74 73 67 67 9E BB BB BB BB BB BB BB BB 
      12.  00:972B  BB BD BE 59 A6 5A A3 A3 A3 B1 59 A6 5A AC B1 A3 
      13.  00:973B                          db      6,6,6,6,6,6,6,6,6,6,2,2,2,2,6,6,6,6,6,6,167,94,86,86,84,86,86,95,174,175,6,6,187,135,167,94,84,84,86,86,86,212,86,212,86,2,211,211,86,211,86,86,168,174,175,6,22,0,22,22,119,119,119,119,158,97,200,200,200,200,97,22,2,2,2,2,2,2,2,2,2,2,2,2,2,2,2,2,2,2,2,2,2,2,2,2
      13.  00:973B  06 06 06 06 06 06 06 06 06 06 02 02 02 02 06 06 
      13.  00:974B  06 06 06 06 A7 5E 56 56 54 56 56 5F AE AF 06 06 
      13.  00:975B  BB 87 A7 5E 54 54 56 56 56 D4 56 D4 56 02 D3 D3 
      13.  00:976B  56 D3 56 56 A8 AE AF 06 16 00 16 16 77 77 77 77 
      13.  00:977B  9E 61 C8 C8 C8 C8 61 16 02 02 02 02 02 02 02 02 
      13.  00:978B  02 02 02 02 02 02 02 02 02 02 02 02 02 02 02 02 
      14.  00:979B                          db      6,6,6,6,6,6,6,6,6,6,2,2,2,2,6,6,6,167,94,168,2,2,2,2,2,2,2,2,2,176,168,175,187,184,2,137,2,2,137,2,2,2,2,2,2,2,178,178,2,178,2,2,2,2,2,2,0,0,0,104,0,104,0,104,0,108,0,118,122,0,104,123,2,2,2,2,2,2,2,2,2,2,2,2,2,2,2,2,2,2,2,2,2,2,2,2
      14.  00:979B  06 06 06 06 06 06 06 06 06 06 02 02 02 02 06 06 
      14.  00:97AB  06 A7 5E A8 02 02 02 02 02 02 02 02 02 B0 A8 AF 
      14.  00:97BB  BB B8 02 89 02 02 89 02 02 02 02 02 02 02 B2 B2 
      14.  00:97CB  02 B2 02 02 02 02 02 02 00 00 00 68 00 68 00 68 
      14.  00:97DB  00 6C 00 76 7A 00 68 7B 02 02 02 02 02 02 02 02 
      14.  00:97EB  02 02 02 02 02 02 02 02 02 02 02 02 02 02 02 02 
      15.  00:97FB                          db      6,6,6,6,6,6,6,6,6,6,88,88,88,88,6,6,6,2,2,2,2,2,2,2,2,190,190,190,2,2,2,209,187,189,190,2,2,2,2,2,2,186,185,189,190,2,178,178,2,178,165,171,173,2,186,185,22,0,22,22,22,22,22,22,119,122,0,104,0,108,0,123,2,2,2,2,2,2,2,2,2,2,2,2,2,2,2,2,2,2,2,2,2,2,2,2
      15.  00:97FB  06 06 06 06 06 06 06 06 06 06 58 58 58 58 06 06 
      15.  00:980B  06 02 02 02 02 02 02 02 02 BE BE BE 02 02 02 D1 
      15.  00:981B  BB BD BE 02 02 02 02 02 02 BA B9 BD BE 02 B2 B2 
      15.  00:982B  02 B2 A5 AB AD 02 BA B9 16 00 16 16 16 16 16 16 
      15.  00:983B  77 7A 00 68 00 6C 00 7B 02 02 02 02 02 02 02 02 
      15.  00:984B  02 02 02 02 02 02 02 02 02 02 02 02 02 02 02 02 
      16.  00:985B                          db      6,6,6,6,6,6,6,6,6,6,6,6,6,6,6,6,167,94,2,2,190,221,187,187,187,187,187,187,187,129,93,210,187,187,187,187,187,187,187,187,187,187,187,187,187,187,187,187,187,187,187,187,187,187,187,187,22,0,22,22,22,119,22,22,158,103,103,103,103,103,103,119,2,2,2,2,2,2,2,2,2,2,2,2,2,2,2,2,2,2,2,2,2,2,2,2
      16.  00:985B  06 06 06 06 06 06 06 06 06 06 06 06 06 06 06 06 
      16.  00:986B  A7 5E 02 02 BE DD BB BB BB BB BB BB BB 81 5D D2 
      16.  00:987B  BB BB BB BB BB BB BB BB BB BB BB BB BB BB BB BB 
      16.  00:988B  BB BB BB BB BB BB BB BB 16 00 16 16 16 77 16 16 
      16.  00:989B  9E 67 67 67 67 67 67 77 02 02 02 02 02 02 02 02 
      16.  00:98AB  02 02 02 02 02 02 02 02 02 02 02 02 02 02 02 02 
      17.  00:98BB                          db      6,167,174,175,6,6,167,94,86,86,95,94,168,84,86,84,2,2,2,2,187,187,138,134,134,128,138,137,130,187,2,209,6,6,6,6,6,6,6,127,187,187,137,130,187,138,136,136,136,138,136,134,128,187,187,187,22,0,22,22,22,22,22,22,22,158,22,22,158,22,22,22,22,22,22,158,22,22,159,22,22,22,158,97,97,200,208,200,208,200,200,200,200,200,97,119
      17.  00:98BB  06 A7 AE AF 06 06 A7 5E 56 56 5F 5E A8 54 56 54 
      17.  00:98CB  02 02 02 02 BB BB 8A 86 86 80 8A 89 82 BB 02 D1 
      17.  00:98DB  06 06 06 06 06 06 06 7F BB BB 89 82 BB 8A 88 88 
      17.  00:98EB  88 8A 88 86 80 BB BB BB 16 00 16 16 16 16 16 16 
      17.  00:98FB  16 9E 16 16 9E 16 16 16 16 16 16 9E 16 16 9F 16 
      17.  00:990B  16 16 9E 61 61 C8 D0 C8 D0 C8 C8 C8 C8 C8 61 77 
      18.  00:991B                          db      6,2,2,176,168,184,2,2,2,2,2,2,2,2,2,2,2,2,2,2,2,134,2,2,2,2,2,2,2,2,2,209,6,167,94,86,84,168,184,2,2,136,2,2,136,2,2,2,2,2,2,2,2,2,130,187,22,0,22,113,0,0,0,0,112,121,113,112,121,113,200,97,97,0,112,121,113,97,97,97,97,200,0,0,104,0,156,161,225,108,108,108,108,108,108,123
      18.  00:991B  06 02 02 B0 A8 B8 02 02 02 02 02 02 02 02 02 02 
      18.  00:992B  02 02 02 02 02 86 02 02 02 02 02 02 02 02 02 D1 
      18.  00:993B  06 A7 5E 56 54 A8 B8 02 02 88 02 02 88 02 02 02 
      18.  00:994B  02 02 02 02 02 02 82 BB 16 00 16 71 00 00 00 00 
      18.  00:995B  70 79 71 70 79 71 C8 61 61 00 70 79 71 61 61 61 
      18.  00:996B  61 C8 00 00 68 00 9C A1 E1 6C 6C 6C 6C 6C 6C 7B 
      19.  00:997B                          db      6,2,2,219,2,2,2,2,2,2,2,2,2,2,2,2,2,2,2,165,89,166,166,166,166,90,173,188,2,2,2,2,2,2,2,2,2,2,2,2,2,2,2,190,214,215,215,215,215,215,215,215,215,216,2,2,0,0,22,0,0,151,111,0,0,104,0,0,104,0,118,0,0,202,103,103,103,103,103,103,103,103,0,108,0,120,103,103,103,104,104,104,104,104,104,123
      19.  00:997B  06 02 02 DB 02 02 02 02 02 02 02 02 02 02 02 02 
      19.  00:998B  02 02 02 A5 59 A6 A6 A6 A6 5A AD BC 02 02 02 02 
      19.  00:999B  02 02 02 02 02 02 02 02 02 02 02 BE D6 D7 D7 D7 
      19.  00:99AB  D7 D7 D7 D7 D7 D8 02 02 00 00 16 00 00 97 6F 00 
      19.  00:99BB  00 68 00 00 68 00 76 00 00 CA 67 67 67 67 67 67 
      19.  00:99CB  67 67 00 6C 00 78 67 67 67 68 68 68 68 68 68 7B 
      20.  00:99DB                          db      6,90,217,218,163,163,163,163,163,163,89,164,127,187,189,163,163,89,164,6,6,6,6,6,6,6,6,6,6,163,163,6,6,213,90,172,163,163,163,163,190,221,187,187,138,2,2,2,2,2,2,2,2,130,187,187,22,0,22,142,142,143,142,103,103,103,103,103,103,202,103,103,103,117,22,22,22,22,22,22,158,22,124,125,126,22,22,22,22,158,22,22,159,159,22,22
      20.  00:99DB  06 5A D9 DA A3 A3 A3 A3 A3 A3 59 A4 7F BB BD A3 
      20.  00:99EB  A3 59 A4 06 06 06 06 06 06 06 06 06 06 A3 A3 06 
      20.  00:99FB  06 D5 5A AC A3 A3 A3 A3 BE DD BB BB 8A 02 02 02 
      20.  00:9A0B  02 02 02 02 02 82 BB BB 16 00 16 8E 8E 8F 8E 67 
      20.  00:9A1B  67 67 67 67 67 CA 67 67 67 75 16 16 16 16 16 16 
      20.  00:9A2B  9E 16 7C 7D 7E 16 16 16 16 9E 16 16 9F 9F 16 16 
      21.  00:9A3B                          db      230,231,162,231,162,154,153,153,84,95,174,175,6,167,94,168,168,134,134,136,134,136,134,134,136,222,223,223,223,223,224,130,187,187,187,187,187,187,187,187,187,187,187,187,137,2,2,2,2,2,2,2,2,130,187,187,158,0,22,150,200,200,200,200,200,200,200,200,200,96,159,22,22,200,200,200,200,204,200,197,2,2,2,2,2,2,2,2,2,2,2,2,2,2,2,2
      21.  00:9A3B  E6 E7 A2 E7 A2 9A 99 99 54 5F AE AF 06 A7 5E A8 
      21.  00:9A4B  A8 86 86 88 86 88 86 86 88 DE DF DF DF DF E0 82 
      21.  00:9A5B  BB BB BB BB BB BB BB BB BB BB BB BB 89 02 02 02 
      21.  00:9A6B  02 02 02 02 02 82 BB BB 9E 00 16 96 C8 C8 C8 C8 
      21.  00:9A7B  C8 C8 C8 C8 C8 60 9F 16 16 C8 C8 C8 C8 CC C8 C5 
      21.  00:9A8B  02 02 02 02 02 02 02 02 02 02 02 02 02 02 02 02 
      22.  00:9A9B                          db      229,104,191,104,0,0,0,0,2,2,2,219,2,2,2,2,2,2,2,2,2,2,2,2,2,2,2,2,2,2,2,2,2,2,134,138,136,2,178,130,187,138,2,2,2,2,2,2,2,2,2,2,2,2,187,187,157,0,22,149,148,202,103,103,147,103,147,103,192,117,22,158,22,203,203,203,202,201,203,22,2,2,2,2,2,2,2,2,2,2,2,2,2,2,2,2
      22.  00:9A9B  E5 68 BF 68 00 00 00 00 02 02 02 DB 02 02 02 02 
      22.  00:9AAB  02 02 02 02 02 02 02 02 02 02 02 02 02 02 02 02 
      22.  00:9ABB  02 02 86 8A 88 02 B2 82 BB 8A 02 02 02 02 02 02 
      22.  00:9ACB  02 02 02 02 02 02 BB BB 9D 00 16 95 94 CA 67 67 
      22.  00:9ADB  93 67 93 67 C0 75 16 9E 16 CB CB CB CA C9 CB 16 
      22.  00:9AEB  02 02 02 02 02 02 02 02 02 02 02 02 02 02 02 02 
      23.  00:9AFB                          db      229,160,144,155,118,108,108,108,2,2,165,218,163,89,164,220,220,220,220,220,220,220,220,220,220,2,2,2,2,2,2,220,220,213,145,146,2,2,178,2,178,2,2,2,2,186,189,190,85,78,226,2,190,186,187,187,22,0,157,22,22,96,97,97,97,97,97,97,97,97,97,0,0,0,0,0,96,199,195,196,2,2,2,2,2,2,2,2,2,2,2,2,2,2,2,2
      23.  00:9AFB  E5 A0 90 9B 76 6C 6C 6C 02 02 A5 DA A3 59 A4 DC 
      23.  00:9B0B  DC DC DC DC DC DC DC DC DC 02 02 02 02 02 02 DC 
      23.  00:9B1B  DC D5 91 92 02 02 B2 02 B2 02 02 02 02 BA BD BE 
      23.  00:9B2B  55 4E E2 02 BE BA BB BB 16 00 9D 16 16 60 61 61 
      23.  00:9B3B  61 61 61 61 61 61 61 00 00 00 00 00 60 C7 C3 C4 
      23.  00:9B4B  02 02 02 02 02 02 02 02 02 02 02 02 02 02 02 02 
      24.  00:9B5B                          db      227,228,228,228,228,228,228,228,166,164,6,6,6,6,6,6,6,6,6,6,6,6,6,6,6,88,88,88,88,88,88,6,6,6,6,6,213,90,177,163,177,89,166,164,127,187,187,187,187,187,187,187,187,187,187,187,158,103,103,103,103,117,103,103,103,103,147,103,103,103,192,103,103,103,103,103,117,198,194,193,2,2,2,2,2,2,2,2,2,2,2,2,2,2,2,2
      24.  00:9B5B  E3 E4 E4 E4 E4 E4 E4 E4 A6 A4 06 06 06 06 06 06 
      24.  00:9B6B  06 06 06 06 06 06 06 06 06 58 58 58 58 58 58 06 
      24.  00:9B7B  06 06 06 06 D5 5A B1 A3 B1 59 A6 A4 7F BB BB BB 
      24.  00:9B8B  BB BB BB BB BB BB BB BB 9E 67 67 67 67 75 67 67 
      24.  00:9B9B  67 67 93 67 67 67 C0 67 67 67 67 67 75 C6 C2 C1 
      24.  00:9BAB  02 02 02 02 02 02 02 02 02 02 02 02 02 02 02 02 
    4389   00:9BBB                      				
    4390   00:9BBB                      HYPERTYLES:		
    4391   00:9BBB                      				include	"MAPAS/HYPERTILES.asm"
       1.  00:9BBB                          dw      0,0,0,0,1,1,1,304,2,2,251,2,1,1,1,1,1,1,304,1,0,283,0,0,1016,1017,1016,1017,0,20,1016,1017
       1.  00:9BBB  00 00 00 00 00 00 00 00 01 00 01 00 01 00 30 01 
       1.  00:9BCB  02 00 02 00 FB 00 02 00 01 00 01 00 01 00 01 00 
       1.  00:9BDB  01 00 01 00 30 01 01 00 00 00 1B 01 00 00 00 00 
       1.  00:9BEB  F8 03 F9 03 F8 03 F9 03 00 00 14 00 F8 03 F9 03 
       2.  00:9BFB                          dw      0,282,0,0,1,306,1,1,2,248,2,2,1,1,1,1,1,1,1,1,11,12,13,14,1018,1019,1018,1019,0,19,1018,1019
       2.  00:9BFB  00 00 1A 01 00 00 00 00 01 00 32 01 01 00 01 00 
       2.  00:9C0B  02 00 F8 00 02 00 02 00 01 00 01 00 01 00 01 00 
       2.  00:9C1B  01 00 01 00 01 00 01 00 0B 00 0C 00 0D 00 0E 00 
       2.  00:9C2B  FA 03 FB 03 FA 03 FB 03 00 00 13 00 FA 03 FB 03 
       3.  00:9C3B                          dw      0,0,0,283,1,1,1,1,2,2,2,2,1,1,3,1,1,1,1,1,15,16,17,18,1020,1021,1020,1021,20,1021,1020,1021
       3.  00:9C3B  00 00 00 00 00 00 1B 01 01 00 01 00 01 00 01 00 
       3.  00:9C4B  02 00 02 00 02 00 02 00 01 00 01 00 03 00 01 00 
       3.  00:9C5B  01 00 01 00 01 00 01 00 0F 00 10 00 11 00 12 00 
       3.  00:9C6B  FC 03 FD 03 FC 03 FD 03 14 00 FD 03 FC 03 FD 03 
       4.  00:9C7B                          dw      283,0,0,0,1,1,1,308,249,2,2,250,1,4,5,6,7,8,9,10,1,1,1,1,1022,1023,1022,1023,19,1023,1022,1023
       4.  00:9C7B  1B 01 00 00 00 00 00 00 01 00 01 00 01 00 34 01 
       4.  00:9C8B  F9 00 02 00 02 00 FA 00 01 00 04 00 05 00 06 00 
       4.  00:9C9B  07 00 08 00 09 00 0A 00 01 00 01 00 01 00 01 00 
       4.  00:9CAB  FE 03 FF 03 FE 03 FF 03 13 00 FF 03 FE 03 FF 03 
       5.  00:9CBB                          dw      1016,1017,21,0,0,0,0,0,0,282,0,0,1016,1017,1022,25,1,306,1,1,28,29,30,31,21,0,0,283,1,1,1,1
       5.  00:9CBB  F8 03 F9 03 15 00 00 00 00 00 00 00 00 00 00 00 
       5.  00:9CCB  00 00 1A 01 00 00 00 00 F8 03 F9 03 FE 03 19 00 
       5.  00:9CDB  01 00 32 01 01 00 01 00 1C 00 1D 00 1E 00 1F 00 
       5.  00:9CEB  15 00 00 00 00 00 1B 01 01 00 01 00 01 00 01 00 
       6.  00:9CFB                          dw      1018,1019,22,0,0,23,1015,1015,1015,1015,1015,25,1018,1019,1022,25,1,1,1,1,32,33,34,35,22,0,0,0,39,760,761,762
       6.  00:9CFB  FA 03 FB 03 16 00 00 00 00 00 17 00 F7 03 F7 03 
       6.  00:9D0B  F7 03 F7 03 F7 03 19 00 FA 03 FB 03 FE 03 19 00 
       6.  00:9D1B  01 00 01 00 01 00 01 00 20 00 21 00 22 00 23 00 
       6.  00:9D2B  16 00 00 00 00 00 00 00 27 00 F8 02 F9 02 FA 02 
       7.  00:9D3B                          dw      1020,1021,1020,21,20,1021,1020,1021,1020,1021,1020,25,1020,1021,1022,25,26,766,767,27,1,36,37,38,1020,21,0,0,40,763,764,765
       7.  00:9D3B  FC 03 FD 03 FC 03 15 00 14 00 FD 03 FC 03 FD 03 
       7.  00:9D4B  FC 03 FD 03 FC 03 19 00 FC 03 FD 03 FE 03 19 00 
       7.  00:9D5B  1A 00 FE 02 FF 02 1B 00 01 00 24 00 25 00 26 00 
       7.  00:9D6B  FC 03 15 00 00 00 00 00 28 00 FB 02 FC 02 FD 02 
       8.  00:9D7B                          dw      1022,1023,1022,22,19,1023,1022,1023,1022,1023,1022,25,1022,1023,1022,25,1022,1023,1022,1023,1022,1023,1022,1023,1022,22,0,0,1022,1023,1022,1023
       8.  00:9D7B  FE 03 FF 03 FE 03 16 00 13 00 FF 03 FE 03 FF 03 
       8.  00:9D8B  FE 03 FF 03 FE 03 19 00 FE 03 FF 03 FE 03 19 00 
       8.  00:9D9B  FE 03 FF 03 FE 03 FF 03 FE 03 FF 03 FE 03 FF 03 
       8.  00:9DAB  FE 03 16 00 00 00 00 00 FE 03 FF 03 FE 03 FF 03 
       9.  00:9DBB                          dw      53,54,55,56,52,1017,1016,1017,1,1,1,1,1,1,1,1,1,1,1,1,0,0,0,0,981,990,982,983,28,29,30,31
       9.  00:9DBB  35 00 36 00 37 00 38 00 34 00 F9 03 F8 03 F9 03 
       9.  00:9DCB  01 00 01 00 01 00 01 00 01 00 01 00 01 00 01 00 
       9.  00:9DDB  01 00 01 00 01 00 01 00 00 00 00 00 00 00 00 00 
       9.  00:9DEB  D5 03 DE 03 D6 03 D7 03 1C 00 1D 00 1E 00 1F 00 
      10.  00:9DFB                          dw      57,58,59,60,52,1019,1018,1019,1,42,43,44,1,1,24,1,1,308,1,1,1015,1015,1015,1015,991,989,989,984,32,33,34,41
      10.  00:9DFB  39 00 3A 00 3B 00 3C 00 34 00 FB 03 FA 03 FB 03 
      10.  00:9E0B  01 00 2A 00 2B 00 2C 00 01 00 01 00 18 00 01 00 
      10.  00:9E1B  01 00 34 01 01 00 01 00 F7 03 F7 03 F7 03 F7 03 
      10.  00:9E2B  DF 03 DD 03 DD 03 D8 03 20 00 21 00 22 00 29 00 
      11.  00:9E3B                          dw      61,62,63,64,52,1021,1020,1021,1,45,46,47,48,49,50,51,1,1,1,1,1020,1021,1020,1021,991,989,989,984,1,36,37,38
      11.  00:9E3B  3D 00 3E 00 3F 00 40 00 34 00 FD 03 FC 03 FD 03 
      11.  00:9E4B  01 00 2D 00 2E 00 2F 00 30 00 31 00 32 00 33 00 
      11.  00:9E5B  01 00 01 00 01 00 01 00 FC 03 FD 03 FC 03 FD 03 
      11.  00:9E6B  DF 03 DD 03 DD 03 D8 03 01 00 24 00 25 00 26 00 
      12.  00:9E7B                          dw      1016,1017,1019,1018,52,1023,1022,1023,1016,1017,1019,1018,1019,1018,1016,1017,1016,1019,1018,1017,1022,1023,1022,1023,985,986,987,988,1022,1023,1022,1023
      12.  00:9E7B  F8 03 F9 03 FB 03 FA 03 34 00 FF 03 FE 03 FF 03 
      12.  00:9E8B  F8 03 F9 03 FB 03 FA 03 FB 03 FA 03 F8 03 F9 03 
      12.  00:9E9B  F8 03 FB 03 FA 03 F9 03 FE 03 FF 03 FE 03 FF 03 
      12.  00:9EAB  D9 03 DA 03 DB 03 DC 03 FE 03 FF 03 FE 03 FF 03 
      13.  00:9EBB                          dw      76,1,1,1,0,0,0,20,0,0,0,0,0,0,0,1009,0,0,0,0,0,0,283,0,0,0,0,0,1,78,79,80
      13.  00:9EBB  4C 00 01 00 01 00 01 00 00 00 00 00 00 00 14 00 
      13.  00:9ECB  00 00 00 00 00 00 00 00 00 00 00 00 00 00 F1 03 
      13.  00:9EDB  00 00 00 00 00 00 00 00 00 00 00 00 1B 01 00 00 
      13.  00:9EEB  00 00 00 00 00 00 00 00 01 00 4E 00 4F 00 50 00 
      14.  00:9EFB                          dw      77,1,1,1,0,0,0,19,0,279,280,281,0,0,0,0,96,97,98,99,100,101,102,103,85,86,87,88,81,82,83,84
      14.  00:9EFB  4D 00 01 00 01 00 01 00 00 00 00 00 00 00 13 00 
      14.  00:9F0B  00 00 17 01 18 01 19 01 00 00 00 00 00 00 00 00 
      14.  00:9F1B  60 00 61 00 62 00 63 00 64 00 65 00 66 00 67 00 
      14.  00:9F2B  55 00 56 00 57 00 58 00 51 00 52 00 53 00 54 00 
      15.  00:9F3B                          dw      1,1,1,1,283,0,20,1021,0,282,0,0,0,277,278,0,104,105,106,105,106,108,110,111,89,90,91,92,1,1,1,1
      15.  00:9F3B  01 00 01 00 01 00 01 00 1B 01 00 00 14 00 FD 03 
      15.  00:9F4B  00 00 1A 01 00 00 00 00 00 00 15 01 16 01 00 00 
      15.  00:9F5B  68 00 69 00 6A 00 69 00 6A 00 6C 00 6E 00 6F 00 
      15.  00:9F6B  59 00 5A 00 5B 00 5C 00 01 00 01 00 01 00 01 00 
      16.  00:9F7B                          dw      1016,1019,1018,1017,0,0,19,1023,0,0,0,0,0,0,283,0,1,1,1,1,1,1,1,1,1,1,1,1,1,1,1,1
      16.  00:9F7B  F8 03 FB 03 FA 03 F9 03 00 00 00 00 13 00 FF 03 
      16.  00:9F8B  00 00 00 00 00 00 00 00 00 00 00 00 1B 01 00 00 
      16.  00:9F9B  01 00 01 00 01 00 01 00 01 00 01 00 01 00 01 00 
      16.  00:9FAB  01 00 01 00 01 00 01 00 01 00 01 00 01 00 01 00 
      17.  00:9FBB                          dw      1,1,94,95,0,0,0,0,1,1,1,1,21,0,115,116,1016,1001,114,1,1001,1,1,1,0,0,0,0,125,126,127,1
      17.  00:9FBB  01 00 01 00 5E 00 5F 00 00 00 00 00 00 00 00 00 
      17.  00:9FCB  01 00 01 00 01 00 01 00 15 00 00 00 73 00 74 00 
      17.  00:9FDB  F8 03 E9 03 72 00 01 00 E9 03 01 00 01 00 01 00 
      17.  00:9FEB  00 00 00 00 00 00 00 00 7D 00 7E 00 7F 00 01 00 
      18.  00:9FFB                          dw      1,125,126,127,1015,1015,93,0,1,1,94,95,117,118,119,120,1018,1003,113,1,1003,1,1,1,85,86,87,88,157,158,159,1
      18.  00:9FFB  01 00 7D 00 7E 00 7F 00 F7 03 F7 03 5D 00 00 00 
      18.  00:A00B  01 00 01 00 5E 00 5F 00 75 00 76 00 77 00 78 00 
      18.  00:A01B  FA 03 EB 03 71 00 01 00 EB 03 01 00 01 00 01 00 
      18.  00:A02B  55 00 56 00 57 00 58 00 9D 00 9E 00 9F 00 01 00 
      19.  00:A03B                          dw      1,157,158,159,1020,1021,1020,21,1,125,126,127,121,122,123,124,1020,1005,1001,1,1003,1,1,1,89,90,91,92,1,1,3,1
      19.  00:A03B  01 00 9D 00 9E 00 9F 00 FC 03 FD 03 FC 03 15 00 
      19.  00:A04B  01 00 7D 00 7E 00 7F 00 79 00 7A 00 7B 00 7C 00 
      19.  00:A05B  FC 03 ED 03 E9 03 01 00 EB 03 01 00 01 00 01 00 
      19.  00:A06B  59 00 5A 00 5B 00 5C 00 01 00 01 00 03 00 01 00 
      20.  00:A07B                          dw      1,1,1,1,1022,1023,1022,22,1,157,158,159,999,1000,1,1,1022,1007,1008,1,1022,1019,1018,1017,1,94,95,1,1,4,5,6
      20.  00:A07B  01 00 01 00 01 00 01 00 FE 03 FF 03 FE 03 16 00 
      20.  00:A08B  01 00 9D 00 9E 00 9F 00 E7 03 E8 03 01 00 01 00 
      20.  00:A09B  FE 03 EF 03 F0 03 01 00 FE 03 FB 03 FA 03 F9 03 
      20.  00:A0AB  01 00 5E 00 5F 00 01 00 01 00 04 00 05 00 06 00 
      21.  00:A0BB                          dw      28,29,30,31,1,45,46,47,1,1,1,1,125,126,127,1,0,0,283,0,42,43,44,1,112,1017,1016,1017,0,23,1016,1017
      21.  00:A0BB  1C 00 1D 00 1E 00 1F 00 01 00 2D 00 2E 00 2F 00 
      21.  00:A0CB  01 00 01 00 01 00 01 00 7D 00 7E 00 7F 00 01 00 
      21.  00:A0DB  00 00 00 00 1B 01 00 00 2A 00 2B 00 2C 00 01 00 
      21.  00:A0EB  70 00 F9 03 F8 03 F9 03 00 00 17 00 F8 03 F9 03 
      22.  00:A0FB                          dw      32,33,34,35,1,760,761,762,1,1,1,1,157,158,159,1,103,101,102,103,45,46,47,1,112,1019,1018,1019,88,1019,1018,1019
      22.  00:A0FB  20 00 21 00 22 00 23 00 01 00 F8 02 F9 02 FA 02 
      22.  00:A10B  01 00 01 00 01 00 01 00 9D 00 9E 00 9F 00 01 00 
      22.  00:A11B  67 00 65 00 66 00 67 00 2D 00 2E 00 2F 00 01 00 
      22.  00:A12B  70 00 FB 03 FA 03 FB 03 58 00 FB 03 FA 03 FB 03 
      23.  00:A13B                          dw      1,1,5,1,1,763,764,765,1,1,1,1,1,1,1,1,111,111,110,111,1,42,43,44,112,1021,1020,1021,92,1021,1020,1021
      23.  00:A13B  01 00 01 00 05 00 01 00 01 00 FB 02 FC 02 FD 02 
      23.  00:A14B  01 00 01 00 01 00 01 00 01 00 01 00 01 00 01 00 
      23.  00:A15B  6F 00 6F 00 6E 00 6F 00 01 00 2A 00 2B 00 2C 00 
      23.  00:A16B  70 00 FD 03 FC 03 FD 03 5C 00 FD 03 FC 03 FD 03 
      24.  00:A17B                          dw      1,1,5,1,1016,1019,1018,1017,1,42,43,44,1,42,43,44,1,4,5,6,1,45,46,47,112,1023,1022,1023,112,1023,1022,1023
      24.  00:A17B  01 00 01 00 05 00 01 00 F8 03 FB 03 FA 03 F9 03 
      24.  00:A18B  01 00 2A 00 2B 00 2C 00 01 00 2A 00 2B 00 2C 00 
      24.  00:A19B  01 00 04 00 05 00 06 00 01 00 2D 00 2E 00 2F 00 
      24.  00:A1AB  70 00 FF 03 FE 03 FF 03 70 00 FF 03 FE 03 FF 03 
      25.  00:A1BB                          dw      112,1017,1016,1017,30,1,1,1,0,0,0,0,1009,0,0,0,1012,1010,1013,1014,0,0,0,0,0,282,0,0,0,0,283,0
      25.  00:A1BB  70 00 F9 03 F8 03 F9 03 1E 00 01 00 01 00 01 00 
      25.  00:A1CB  00 00 00 00 00 00 00 00 F1 03 00 00 00 00 00 00 
      25.  00:A1DB  F4 03 F2 03 F5 03 F6 03 00 00 00 00 00 00 00 00 
      25.  00:A1EB  00 00 1A 01 00 00 00 00 00 00 00 00 1B 01 00 00 
      26.  00:A1FB                          dw      112,1019,1018,1019,34,1,76,1,0,1010,1013,1013,1013,1013,1014,0,1012,1013,1009,1014,0,0,0,0,0,0,0,0,0,0,0,0
      26.  00:A1FB  70 00 FB 03 FA 03 FB 03 22 00 01 00 4C 00 01 00 
      26.  00:A20B  00 00 F2 03 F5 03 F5 03 F5 03 F5 03 F6 03 00 00 
      26.  00:A21B  F4 03 F5 03 F1 03 F6 03 00 00 00 00 00 00 00 00 
      26.  00:A22B  00 00 00 00 00 00 00 00 00 00 00 00 00 00 00 00 
      27.  00:A23B                          dw      112,1021,1020,1021,5,35,77,1,1012,1013,1013,1013,1013,1013,1013,1014,1012,1013,1013,1014,0,0,283,0,0,0,0,0,0,0,0,0
      27.  00:A23B  70 00 FD 03 FC 03 FD 03 05 00 23 00 4D 00 01 00 
      27.  00:A24B  F4 03 F5 03 F5 03 F5 03 F5 03 F5 03 F5 03 F6 03 
      27.  00:A25B  F4 03 F5 03 F5 03 F6 03 00 00 00 00 1B 01 00 00 
      27.  00:A26B  00 00 00 00 00 00 00 00 00 00 00 00 00 00 00 00 
      28.  00:A27B                          dw      1015,1019,1018,1017,5,1,1,1,0,0,0,1010,1011,0,0,0,1012,1013,1013,1014,1012,1013,1013,1013,1013,1013,1013,1013,1013,1013,1013,1014
      28.  00:A27B  F7 03 FB 03 FA 03 F9 03 05 00 01 00 01 00 01 00 
      28.  00:A28B  00 00 00 00 00 00 F2 03 F3 03 00 00 00 00 00 00 
      28.  00:A29B  F4 03 F5 03 F5 03 F6 03 F4 03 F5 03 F5 03 F5 03 
      28.  00:A2AB  F5 03 F5 03 F5 03 F5 03 F5 03 F5 03 F5 03 F6 03 
      29.  00:A2BB                          dw      604,605,606,607,0,283,0,0,0,0,0,0,1012,1013,1013,1013,278,279,280,281,0,0,0,0,0,0,0,0,1013,1013,1013,1013
      29.  00:A2BB  5C 02 5D 02 5E 02 5F 02 00 00 1B 01 00 00 00 00 
      29.  00:A2CB  00 00 00 00 00 00 00 00 F4 03 F5 03 F5 03 F5 03 
      29.  00:A2DB  16 01 17 01 18 01 19 01 00 00 00 00 00 00 00 00 
      29.  00:A2EB  00 00 00 00 00 00 00 00 F5 03 F5 03 F5 03 F5 03 
      30.  00:A2FB                          dw      604,605,606,607,0,0,0,0,0,1012,1013,1013,1013,1013,1013,1013,278,279,280,281,1013,1013,1014,0,0,0,0,0,0,0,0,0
      30.  00:A2FB  5C 02 5D 02 5E 02 5F 02 00 00 00 00 00 00 00 00 
      30.  00:A30B  00 00 F4 03 F5 03 F5 03 F5 03 F5 03 F5 03 F5 03 
      30.  00:A31B  16 01 17 01 18 01 19 01 F5 03 F5 03 F6 03 00 00 
      30.  00:A32B  00 00 00 00 00 00 00 00 00 00 00 00 00 00 00 00 
      31.  00:A33B                          dw      604,605,606,607,1012,1013,1013,1013,1013,1013,1013,1013,1013,1013,1013,1013,278,279,280,281,1013,1013,1013,1013,1013,1014,0,0,0,0,0,0
      31.  00:A33B  5C 02 5D 02 5E 02 5F 02 F4 03 F5 03 F5 03 F5 03 
      31.  00:A34B  F5 03 F5 03 F5 03 F5 03 F5 03 F5 03 F5 03 F5 03 
      31.  00:A35B  16 01 17 01 18 01 19 01 F5 03 F5 03 F5 03 F5 03 
      31.  00:A36B  F5 03 F6 03 00 00 00 00 00 00 00 00 00 00 00 00 
      32.  00:A37B                          dw      1012,1013,1013,1013,1013,1013,1013,1013,1013,1013,1013,1013,1013,1013,1013,1013,278,279,280,281,1013,1013,1013,1013,1013,1013,1013,1013,0,0,0,283
      32.  00:A37B  F4 03 F5 03 F5 03 F5 03 F5 03 F5 03 F5 03 F5 03 
      32.  00:A38B  F5 03 F5 03 F5 03 F5 03 F5 03 F5 03 F5 03 F5 03 
      32.  00:A39B  16 01 17 01 18 01 19 01 F5 03 F5 03 F5 03 F5 03 
      32.  00:A3AB  F5 03 F5 03 F5 03 F5 03 00 00 00 00 00 00 1B 01 
      33.  00:A3BB                          dw      604,605,606,607,600,601,602,603,1012,1010,1013,1014,1012,1010,1013,1014,1012,1010,1013,1014,1012,1010,1013,1013,1013,1013,1013,1014,1013,1013,1013,1013
      33.  00:A3BB  5C 02 5D 02 5E 02 5F 02 58 02 59 02 5A 02 5B 02 
      33.  00:A3CB  F4 03 F2 03 F5 03 F6 03 F4 03 F2 03 F5 03 F6 03 
      33.  00:A3DB  F4 03 F2 03 F5 03 F6 03 F4 03 F2 03 F5 03 F5 03 
      33.  00:A3EB  F5 03 F5 03 F5 03 F6 03 F5 03 F5 03 F5 03 F5 03 
      34.  00:A3FB                          dw      604,605,606,607,604,605,606,607,0,0,0,0,0,1012,1010,1013,1012,1010,1013,1014,1012,1010,1013,1013,0,0,0,0,1013,1014,0,0
      34.  00:A3FB  5C 02 5D 02 5E 02 5F 02 5C 02 5D 02 5E 02 5F 02 
      34.  00:A40B  00 00 00 00 00 00 00 00 00 00 F4 03 F2 03 F5 03 
      34.  00:A41B  F4 03 F2 03 F5 03 F6 03 F4 03 F2 03 F5 03 F5 03 
      34.  00:A42B  00 00 00 00 00 00 00 00 F5 03 F6 03 00 00 00 00 
      35.  00:A43B                          dw      604,605,606,607,604,605,606,607,0,282,0,0,0,0,0,0,0,1012,1010,1013,1012,1013,1013,1013,0,0,0,0,0,0,0,0
      35.  00:A43B  5C 02 5D 02 5E 02 5F 02 5C 02 5D 02 5E 02 5F 02 
      35.  00:A44B  00 00 1A 01 00 00 00 00 00 00 00 00 00 00 00 00 
      35.  00:A45B  00 00 F4 03 F2 03 F5 03 F4 03 F5 03 F5 03 F5 03 
      35.  00:A46B  00 00 00 00 00 00 00 00 00 00 00 00 00 00 00 00 
      36.  00:A47B                          dw      604,605,606,607,604,605,606,607,0,0,0,0,0,0,0,0,0,0,0,0,1012,1010,1013,1013,0,0,0,0,0,0,0,282
      36.  00:A47B  5C 02 5D 02 5E 02 5F 02 5C 02 5D 02 5E 02 5F 02 
      36.  00:A48B  00 00 00 00 00 00 00 00 00 00 00 00 00 00 00 00 
      36.  00:A49B  00 00 00 00 00 00 00 00 F4 03 F2 03 F5 03 F5 03 
      36.  00:A4AB  00 00 00 00 00 00 00 00 00 00 00 00 00 00 1A 01 
      37.  00:A4BB                          dw      1012,1010,1013,1011,1012,1010,1013,1011,1012,1010,1013,1014,0,0,283,0,1012,1009,1013,1011,1012,1013,1013,1013,2,2,2,250,0,0,0,0
      37.  00:A4BB  F4 03 F2 03 F5 03 F3 03 F4 03 F2 03 F5 03 F3 03 
      37.  00:A4CB  F4 03 F2 03 F5 03 F6 03 00 00 00 00 1B 01 00 00 
      37.  00:A4DB  F4 03 F1 03 F5 03 F3 03 F4 03 F5 03 F5 03 F5 03 
      37.  00:A4EB  02 00 02 00 02 00 FA 00 00 00 00 00 00 00 00 00 
      38.  00:A4FB                          dw      1009,1013,1013,1014,1009,1013,1013,1014,0,1010,1011,0,0,0,0,0,1009,1013,1013,1014,0,1012,1013,1013,251,2,2,2,0,283,0,0
      38.  00:A4FB  F1 03 F5 03 F5 03 F6 03 F1 03 F5 03 F5 03 F6 03 
      38.  00:A50B  00 00 F2 03 F3 03 00 00 00 00 00 00 00 00 00 00 
      38.  00:A51B  F1 03 F5 03 F5 03 F6 03 00 00 F4 03 F5 03 F5 03 
      38.  00:A52B  FB 00 02 00 02 00 02 00 00 00 1B 01 00 00 00 00 
      39.  00:A53B                          dw      1013,1014,0,0,1012,1013,1009,1011,0,0,0,0,0,1010,1011,0,1012,1013,1009,1011,0,0,1012,1013,2,2,128,129,0,0,0,0
      39.  00:A53B  F5 03 F6 03 00 00 00 00 F4 03 F5 03 F1 03 F3 03 
      39.  00:A54B  00 00 00 00 00 00 00 00 00 00 F2 03 F3 03 00 00 
      39.  00:A55B  F4 03 F5 03 F1 03 F3 03 00 00 00 00 F4 03 F5 03 
      39.  00:A56B  02 00 02 00 80 00 81 00 00 00 00 00 00 00 00 00 
      40.  00:A57B                          dw      0,0,0,0,1009,1013,1013,1014,0,0,0,0,1012,1010,1013,1014,1009,1013,1013,1014,0,0,0,1012,995,996,997,998,1009,0,0,0
      40.  00:A57B  00 00 00 00 00 00 00 00 F1 03 F5 03 F5 03 F6 03 
      40.  00:A58B  00 00 00 00 00 00 00 00 F4 03 F2 03 F5 03 F6 03 
      40.  00:A59B  F1 03 F5 03 F5 03 F6 03 00 00 00 00 00 00 F4 03 
      40.  00:A5AB  E3 03 E4 03 E5 03 E6 03 F1 03 00 00 00 00 00 00 
      41.  00:A5BB                          dw      281,0,0,0,604,605,606,607,1011,605,606,607,2,574,575,249,1016,1017,1016,1017,2,250,2,2,1016,1017,1016,1017,2,574,575,2
      41.  00:A5BB  19 01 00 00 00 00 00 00 5C 02 5D 02 5E 02 5F 02 
      41.  00:A5CB  F3 03 5D 02 5E 02 5F 02 02 00 3E 02 3F 02 F9 00 
      41.  00:A5DB  F8 03 F9 03 F8 03 F9 03 02 00 FA 00 02 00 02 00 
      41.  00:A5EB  F8 03 F9 03 F8 03 F9 03 02 00 3E 02 3F 02 02 00 
      42.  00:A5FB                          dw      0,0,0,0,604,605,606,607,1013,1014,606,607,2,574,575,2,2,285,2,383,2,2,2,2,2,2,2,2,2,574,575,248
      42.  00:A5FB  00 00 00 00 00 00 00 00 5C 02 5D 02 5E 02 5F 02 
      42.  00:A60B  F5 03 F6 03 5E 02 5F 02 02 00 3E 02 3F 02 02 00 
      42.  00:A61B  02 00 1D 01 02 00 7F 01 02 00 02 00 02 00 02 00 
      42.  00:A62B  02 00 02 00 02 00 02 00 02 00 3E 02 3F 02 F8 00 
      43.  00:A63B                          dw      0,0,283,0,1012,1013,1009,1011,1011,605,606,607,2,574,575,251,2,284,2,2,2,2,130,131,2,248,2,251,2,574,575,2
      43.  00:A63B  00 00 00 00 1B 01 00 00 F4 03 F5 03 F1 03 F3 03 
      43.  00:A64B  F3 03 5D 02 5E 02 5F 02 02 00 3E 02 3F 02 FB 00 
      43.  00:A65B  02 00 1C 01 02 00 02 00 02 00 02 00 82 00 83 00 
      43.  00:A66B  02 00 F8 00 02 00 FB 00 02 00 3E 02 3F 02 02 00 
      44.  00:A67B                          dw      0,0,0,0,1013,1013,1013,1013,604,605,606,607,249,574,575,2,2,2,2,2,995,996,997,998,2,2,2,2,1016,1017,1016,1017
      44.  00:A67B  00 00 00 00 00 00 00 00 F5 03 F5 03 F5 03 F5 03 
      44.  00:A68B  5C 02 5D 02 5E 02 5F 02 F9 00 3E 02 3F 02 02 00 
      44.  00:A69B  02 00 02 00 02 00 02 00 E3 03 E4 03 E5 03 E6 03 
      44.  00:A6AB  02 00 02 00 02 00 02 00 F8 03 F9 03 F8 03 F9 03 
      45.  00:A6BB                          dw      250,2,2,248,2,2,2,2,2,2,2,2,2,2,2,2,2,2,251,2,2,249,2,2,1016,1017,1016,1017,1016,1017,1016,1017
      45.  00:A6BB  FA 00 02 00 02 00 F8 00 02 00 02 00 02 00 02 00 
      45.  00:A6CB  02 00 02 00 02 00 02 00 02 00 02 00 02 00 02 00 
      45.  00:A6DB  02 00 02 00 FB 00 02 00 02 00 F9 00 02 00 02 00 
      45.  00:A6EB  F8 03 F9 03 F8 03 F9 03 F8 03 F9 03 F8 03 F9 03 
      46.  00:A6FB                          dw      2,2,2,2,2,2,2,2,250,2,2,2,2,2,2,2,250,2,2,2,2,2,2,2,1016,1017,132,133,2,2,134,135
      46.  00:A6FB  02 00 02 00 02 00 02 00 02 00 02 00 02 00 02 00 
      46.  00:A70B  FA 00 02 00 02 00 02 00 02 00 02 00 02 00 02 00 
      46.  00:A71B  FA 00 02 00 02 00 02 00 02 00 02 00 02 00 02 00 
      46.  00:A72B  F8 03 F9 03 84 00 85 00 02 00 02 00 86 00 87 00 
      47.  00:A73B                          dw      377,378,379,380,2,668,669,1015,670,671,2,249,994,1002,1002,1002,1002,1002,1002,1004,1002,1002,1002,1002,2,2,2,2,2,2,248,2
      47.  00:A73B  79 01 7A 01 7B 01 7C 01 02 00 9C 02 9D 02 F7 03 
      47.  00:A74B  9E 02 9F 02 02 00 F9 00 E2 03 EA 03 EA 03 EA 03 
      47.  00:A75B  EA 03 EA 03 EA 03 EC 03 EA 03 EA 03 EA 03 EA 03 
      47.  00:A76B  02 00 02 00 02 00 02 00 02 00 02 00 F8 00 02 00 
      48.  00:A77B                          dw      1016,1017,1016,1017,1016,1017,1016,1017,1016,1017,1016,1017,1016,2,2,248,2,2,2,1017,2,2,2,2,2,2,2,250,2,2,2,2
      48.  00:A77B  F8 03 F9 03 F8 03 F9 03 F8 03 F9 03 F8 03 F9 03 
      48.  00:A78B  F8 03 F9 03 F8 03 F9 03 F8 03 02 00 02 00 F8 00 
      48.  00:A79B  02 00 02 00 02 00 F9 03 02 00 02 00 02 00 02 00 
      48.  00:A7AB  02 00 02 00 02 00 FA 00 02 00 02 00 02 00 02 00 
      49.  00:A7BB                          dw      0,598,599,136,981,990,982,983,992,1017,1016,1017,1016,1017,1016,993,1,1017,1016,993,0,1017,1016,993,0,0,0,166,0,0,283,0
      49.  00:A7BB  00 00 56 02 57 02 88 00 D5 03 DE 03 D6 03 D7 03 
      49.  00:A7CB  E0 03 F9 03 F8 03 F9 03 F8 03 F9 03 F8 03 E1 03 
      49.  00:A7DB  01 00 F9 03 F8 03 E1 03 00 00 F9 03 F8 03 E1 03 
      49.  00:A7EB  00 00 00 00 00 00 A6 00 00 00 00 00 1B 01 00 00 
      50.  00:A7FB                          dw      0,598,599,136,985,986,987,988,992,1019,1018,1019,1018,1019,1018,993,1,1019,1018,993,14,1019,1018,993,0,0,0,198,0,0,0,0
      50.  00:A7FB  00 00 56 02 57 02 88 00 D9 03 DA 03 DB 03 DC 03 
      50.  00:A80B  E0 03 FB 03 FA 03 FB 03 FA 03 FB 03 FA 03 E1 03 
      50.  00:A81B  01 00 FB 03 FA 03 E1 03 0E 00 FB 03 FA 03 E1 03 
      50.  00:A82B  00 00 00 00 00 00 C6 00 00 00 00 00 00 00 00 00 
      51.  00:A83B                          dw      0,598,599,136,0,0,0,0,992,1021,1020,1021,1020,1021,1020,993,1,1021,1020,993,18,1021,1020,993,0,0,0,0,0,0,283,0
      51.  00:A83B  00 00 56 02 57 02 88 00 00 00 00 00 00 00 00 00 
      51.  00:A84B  E0 03 FD 03 FC 03 FD 03 FC 03 FD 03 FC 03 E1 03 
      51.  00:A85B  01 00 FD 03 FC 03 E1 03 12 00 FD 03 FC 03 E1 03 
      51.  00:A86B  00 00 00 00 00 00 00 00 00 00 00 00 1B 01 00 00 
      52.  00:A87B                          dw      0,598,599,136,0,0,0,0,992,1023,1022,1023,1022,1023,1022,993,1,1023,1022,993,1,1023,1022,993,962,963,963,963,962,963,963,963
      52.  00:A87B  00 00 56 02 57 02 88 00 00 00 00 00 00 00 00 00 
      52.  00:A88B  E0 03 FF 03 FE 03 FF 03 FE 03 FF 03 FE 03 E1 03 
      52.  00:A89B  01 00 FF 03 FE 03 E1 03 01 00 FF 03 FE 03 E1 03 
      52.  00:A8AB  C2 03 C3 03 C3 03 C3 03 C2 03 C3 03 C3 03 C3 03 
      53.  00:A8BB                          dw      0,137,137,0,52,1017,1016,1017,1016,1017,1016,1017,1017,1016,1017,1016,0,0,0,0,868,869,982,983,868,869,982,983,0,167,168,169
      53.  00:A8BB  00 00 89 00 89 00 00 00 34 00 F9 03 F8 03 F9 03 
      53.  00:A8CB  F8 03 F9 03 F8 03 F9 03 F9 03 F8 03 F9 03 F8 03 
      53.  00:A8DB  00 00 00 00 00 00 00 00 64 03 65 03 D6 03 D7 03 
      53.  00:A8EB  64 03 65 03 D6 03 D7 03 00 00 A7 00 A8 00 A9 00 
      54.  00:A8FB                          dw      138,139,140,141,52,1019,1018,1019,1018,1019,1018,1019,1019,1018,1019,1018,142,143,144,0,900,901,989,984,900,989,989,984,0,199,200,201
      54.  00:A8FB  8A 00 8B 00 8C 00 8D 00 34 00 FB 03 FA 03 FB 03 
      54.  00:A90B  FA 03 FB 03 FA 03 FB 03 FB 03 FA 03 FB 03 FA 03 
      54.  00:A91B  8E 00 8F 00 90 00 00 00 84 03 85 03 DD 03 D8 03 
      54.  00:A92B  84 03 DD 03 DD 03 D8 03 00 00 C7 00 C8 00 C9 00 
      55.  00:A93B                          dw      170,171,172,173,52,1021,1020,960,961,1021,1020,1021,962,963,963,963,174,175,176,137,932,933,934,984,991,989,989,984,167,168,168,169
      55.  00:A93B  AA 00 AB 00 AC 00 AD 00 34 00 FD 03 FC 03 C0 03 
      55.  00:A94B  C1 03 FD 03 FC 03 FD 03 C2 03 C3 03 C3 03 C3 03 
      55.  00:A95B  AE 00 AF 00 B0 00 89 00 A4 03 A5 03 A6 03 D8 03 
      55.  00:A96B  DF 03 DD 03 DD 03 D8 03 A7 00 A8 00 A8 00 A9 00 
      56.  00:A97B                          dw      202,203,204,205,52,1023,1022,993,992,1023,1022,1023,0,0,0,0,206,207,208,0,964,965,966,988,964,965,987,988,199,200,200,201
      56.  00:A97B  CA 00 CB 00 CC 00 CD 00 34 00 FF 03 FE 03 E1 03 
      56.  00:A98B  E0 03 FF 03 FE 03 FF 03 00 00 00 00 00 00 00 00 
      56.  00:A99B  CE 00 CF 00 D0 00 00 00 C4 03 C5 03 C6 03 DC 03 
      56.  00:A9AB  C4 03 C5 03 DB 03 DC 03 C7 00 C8 00 C8 00 C9 00 
      57.  00:A9BB                          dw      0,0,145,146,147,148,0,0,149,150,151,152,245,246,246,247,0,0,0,0,0,598,599,136,153,154,0,0,981,983,983,983
      57.  00:A9BB  00 00 00 00 91 00 92 00 93 00 94 00 00 00 00 00 
      57.  00:A9CB  95 00 96 00 97 00 98 00 F5 00 F6 00 F6 00 F7 00 
      57.  00:A9DB  00 00 00 00 00 00 00 00 00 00 56 02 57 02 88 00 
      57.  00:A9EB  99 00 9A 00 00 00 00 00 D5 03 D7 03 D7 03 D7 03 
      58.  00:A9FB                          dw      0,0,177,178,179,180,0,0,181,182,183,184,245,246,246,247,163,164,165,0,0,598,599,136,185,186,0,0,985,988,988,988
      58.  00:A9FB  00 00 00 00 B1 00 B2 00 B3 00 B4 00 00 00 00 00 
      58.  00:AA0B  B5 00 B6 00 B7 00 B8 00 F5 00 F6 00 F6 00 F7 00 
      58.  00:AA1B  A3 00 A4 00 A5 00 00 00 00 00 56 02 57 02 88 00 
      58.  00:AA2B  B9 00 BA 00 00 00 00 00 D9 03 DC 03 DC 03 DC 03 
      59.  00:AA3B                          dw      0,0,209,210,211,212,282,0,213,214,215,216,968,969,969,970,195,196,197,0,0,598,599,136,217,218,0,0,983,983,983,983
      59.  00:AA3B  00 00 00 00 D1 00 D2 00 D3 00 D4 00 1A 01 00 00 
      59.  00:AA4B  D5 00 D6 00 D7 00 D8 00 C8 03 C9 03 C9 03 CA 03 
      59.  00:AA5B  C3 00 C4 00 C5 00 00 00 00 00 56 02 57 02 88 00 
      59.  00:AA6B  D9 00 DA 00 00 00 00 00 D7 03 D7 03 D7 03 D7 03 
      60.  00:AA7B                          dw      283,0,0,0,0,0,0,0,245,246,246,247,962,963,963,963,962,963,963,963,962,963,963,963,0,0,0,283,988,988,988,988
      60.  00:AA7B  1B 01 00 00 00 00 00 00 00 00 00 00 00 00 00 00 
      60.  00:AA8B  F5 00 F6 00 F6 00 F7 00 C2 03 C3 03 C3 03 C3 03 
      60.  00:AA9B  C2 03 C3 03 C3 03 C3 03 C2 03 C3 03 C3 03 C3 03 
      60.  00:AAAB  00 00 00 00 00 00 1B 01 DC 03 DC 03 DC 03 DC 03 
      61.  00:AABB                          dw      153,155,155,154,0,0,0,0,0,0,0,137,0,0,981,983,372,0,0,0,0,282,0,0,0,0,0,372,1016,869,870,871
      61.  00:AABB  99 00 9B 00 9B 00 9A 00 00 00 00 00 00 00 00 00 
      61.  00:AACB  00 00 00 00 00 00 89 00 00 00 00 00 D5 03 D7 03 
      61.  00:AADB  74 01 00 00 00 00 00 00 00 00 1A 01 00 00 00 00 
      61.  00:AAEB  00 00 00 00 00 00 74 01 F8 03 65 03 66 03 67 03 
      62.  00:AAFB                          dw      188,187,187,156,372,0,0,372,0,0,0,0,0,0,991,984,373,374,375,374,375,374,375,374,375,374,375,376,1018,1019,902,903
      62.  00:AAFB  BC 00 BB 00 BB 00 9C 00 74 01 00 00 00 00 74 01 
      62.  00:AB0B  00 00 00 00 00 00 00 00 00 00 00 00 DF 03 D8 03 
      62.  00:AB1B  75 01 76 01 77 01 76 01 77 01 76 01 77 01 76 01 
      62.  00:AB2B  77 01 76 01 77 01 78 01 FA 03 FB 03 86 03 87 03 
      63.  00:AB3B                          dw      185,219,219,186,373,374,375,376,137,0,0,0,282,0,991,984,0,0,0,0,0,0,0,0,0,0,0,0,1020,933,934,935
      63.  00:AB3B  B9 00 DB 00 DB 00 BA 00 75 01 76 01 77 01 78 01 
      63.  00:AB4B  89 00 00 00 00 00 00 00 1A 01 00 00 DF 03 D8 03 
      63.  00:AB5B  00 00 00 00 00 00 00 00 00 00 00 00 00 00 00 00 
      63.  00:AB6B  00 00 00 00 00 00 00 00 FC 03 A5 03 A6 03 A7 03 
      64.  00:AB7B                          dw      0,0,0,0,0,0,0,0,0,0,0,0,0,0,985,988,962,963,963,963,962,963,963,963,962,963,963,963,1022,1023,1022,967
      64.  00:AB7B  00 00 00 00 00 00 00 00 00 00 00 00 00 00 00 00 
      64.  00:AB8B  00 00 00 00 00 00 00 00 00 00 00 00 D9 03 DC 03 
      64.  00:AB9B  C2 03 C3 03 C3 03 C3 03 C2 03 C3 03 C3 03 C3 03 
      64.  00:ABAB  C2 03 C3 03 C3 03 C3 03 FE 03 FF 03 FE 03 C7 03 
      65.  00:ABBB                          dw      868,869,870,871,2,2,2,2,250,868,966,967,1,42,44,1,868,1,1,1,868,869,1,76,964,965,966,967,868,869,870,1017
      65.  00:ABBB  64 03 65 03 66 03 67 03 02 00 02 00 02 00 02 00 
      65.  00:ABCB  FA 00 64 03 C6 03 C7 03 01 00 2A 00 2C 00 01 00 
      65.  00:ABDB  64 03 01 00 01 00 01 00 64 03 65 03 01 00 4C 00 
      65.  00:ABEB  C4 03 C5 03 C6 03 C7 03 64 03 65 03 66 03 F9 03 
      66.  00:ABFB                          dw      2,901,902,903,2,251,2,2,864,865,866,867,900,45,47,1,900,901,1,1,900,901,35,77,2,2,2,2,900,901,902,1019
      66.  00:ABFB  02 00 85 03 86 03 87 03 02 00 FB 00 02 00 02 00 
      66.  00:AC0B  60 03 61 03 62 03 63 03 84 03 2D 00 2F 00 01 00 
      66.  00:AC1B  84 03 85 03 01 00 01 00 84 03 85 03 23 00 4D 00 
      66.  00:AC2B  02 00 02 00 02 00 02 00 84 03 85 03 86 03 FB 03 
      67.  00:AC3B                          dw      2,933,934,935,932,933,934,935,896,897,898,899,932,933,934,1,932,933,1,1,932,933,1,1,2,2,2,2,932,1021,1020,1021
      67.  00:AC3B  02 00 A5 03 A6 03 A7 03 A4 03 A5 03 A6 03 A7 03 
      67.  00:AC4B  80 03 81 03 82 03 83 03 A4 03 A5 03 A6 03 01 00 
      67.  00:AC5B  A4 03 A5 03 01 00 01 00 A4 03 A5 03 01 00 01 00 
      67.  00:AC6B  02 00 02 00 02 00 02 00 A4 03 FD 03 FC 03 FD 03 
      68.  00:AC7B                          dw      2,2,966,967,964,965,966,967,928,929,930,931,964,965,966,967,964,965,1,1,964,1,1,1,2,251,2,2,1022,1023,1022,1023
      68.  00:AC7B  02 00 02 00 C6 03 C7 03 C4 03 C5 03 C6 03 C7 03 
      68.  00:AC8B  A0 03 A1 03 A2 03 A3 03 C4 03 C5 03 C6 03 C7 03 
      68.  00:AC9B  C4 03 C5 03 01 00 01 00 C4 03 01 00 01 00 01 00 
      68.  00:ACAB  02 00 FB 00 02 00 02 00 FE 03 FF 03 FE 03 FF 03 
      69.  00:ACBB                          dw      964,965,966,967,864,2,2,2,868,869,870,871,1,1,1,871,1016,1017,1016,14,1016,1017,1016,1017,757,758,758,759,190,190,190,190
      69.  00:ACBB  C4 03 C5 03 C6 03 C7 03 60 03 02 00 02 00 02 00 
      69.  00:ACCB  64 03 65 03 66 03 67 03 01 00 01 00 01 00 67 03 
      69.  00:ACDB  F8 03 F9 03 F8 03 0E 00 F8 03 F9 03 F8 03 F9 03 
      69.  00:ACEB  F5 02 F6 02 F6 02 F7 02 BE 00 BE 00 BE 00 BE 00 
      70.  00:ACFB                          dw      383,2,2,382,896,2,250,2,900,901,902,2,1,1,902,903,1018,1019,1018,18,1018,1019,1018,1019,190,190,190,190,190,190,190,190
      70.  00:ACFB  7F 01 02 00 02 00 7E 01 80 03 02 00 FA 00 02 00 
      70.  00:AD0B  84 03 85 03 86 03 02 00 01 00 01 00 86 03 87 03 
      70.  00:AD1B  FA 03 FB 03 FA 03 12 00 FA 03 FB 03 FA 03 FB 03 
      70.  00:AD2B  BE 00 BE 00 BE 00 BE 00 BE 00 BE 00 BE 00 BE 00 
      71.  00:AD3B                          dw      2,2,2,381,928,2,2,2,932,2,2,251,1,933,934,935,1020,1021,1020,1,1020,1021,1020,1021,220,221,221,222,220,221,221,222
      71.  00:AD3B  02 00 02 00 02 00 7D 01 A0 03 02 00 02 00 02 00 
      71.  00:AD4B  A4 03 02 00 02 00 FB 00 01 00 A5 03 A6 03 A7 03 
      71.  00:AD5B  FC 03 FD 03 FC 03 01 00 FC 03 FD 03 FC 03 FD 03 
      71.  00:AD6B  DC 00 DD 00 DD 00 DE 00 DC 00 DD 00 DD 00 DE 00 
      72.  00:AD7B                          dw      2,250,2,2,2,2,2,2,2,2,2,2,1,965,966,967,251,2,189,1,2,2,189,2,962,963,963,963,962,963,963,963
      72.  00:AD7B  02 00 FA 00 02 00 02 00 02 00 02 00 02 00 02 00 
      72.  00:AD8B  02 00 02 00 02 00 02 00 01 00 C5 03 C6 03 C7 03 
      72.  00:AD9B  FB 00 02 00 BD 00 01 00 02 00 02 00 BD 00 02 00 
      72.  00:ADAB  C2 03 C3 03 C3 03 C3 03 C2 03 C3 03 C3 03 C3 03 
      73.  00:ADBB                          dw      167,168,168,169,2,251,2,2,2,2,2,2,142,143,144,0,0,0,0,0,373,0,0,376,981,990,982,983,0,0,282,0
      73.  00:ADBB  A7 00 A8 00 A8 00 A9 00 02 00 FB 00 02 00 02 00 
      73.  00:ADCB  02 00 02 00 02 00 02 00 8E 00 8F 00 90 00 00 00 
      73.  00:ADDB  00 00 00 00 00 00 00 00 75 01 00 00 00 00 78 01 
      73.  00:ADEB  D5 03 DE 03 D6 03 D7 03 00 00 00 00 1A 01 00 00 
      74.  00:ADFB                          dw      149,150,151,152,2,2,2,2,2,2,2,2,174,175,176,0,160,161,162,0,181,182,183,184,985,986,987,988,757,758,758,759
      74.  00:ADFB  95 00 96 00 97 00 98 00 02 00 02 00 02 00 02 00 
      74.  00:AE0B  02 00 02 00 02 00 02 00 AE 00 AF 00 B0 00 00 00 
      74.  00:AE1B  A0 00 A1 00 A2 00 00 00 B5 00 B6 00 B7 00 B8 00 
      74.  00:AE2B  D9 03 DA 03 DB 03 DC 03 F5 02 F6 02 F6 02 F7 02 
      75.  00:AE3B                          dw      181,182,183,184,670,671,2,766,767,2,2,2,206,207,208,0,192,193,194,0,213,214,215,216,0,0,0,0,190,190,190,190
      75.  00:AE3B  B5 00 B6 00 B7 00 B8 00 9E 02 9F 02 02 00 FE 02 
      75.  00:AE4B  FF 02 02 00 02 00 02 00 CE 00 CF 00 D0 00 00 00 
      75.  00:AE5B  C0 00 C1 00 C2 00 00 00 D5 00 D6 00 D7 00 D8 00 
      75.  00:AE6B  00 00 00 00 00 00 00 00 BE 00 BE 00 BE 00 BE 00 
      76.  00:AE7B                          dw      213,214,215,216,1016,1017,1022,1023,1022,1023,670,671,962,963,963,963,962,963,963,963,962,963,963,963,213,214,215,216,190,190,190,190
      76.  00:AE7B  D5 00 D6 00 D7 00 D8 00 F8 03 F9 03 FE 03 FF 03 
      76.  00:AE8B  FE 03 FF 03 9E 02 9F 02 C2 03 C3 03 C3 03 C3 03 
      76.  00:AE9B  C2 03 C3 03 C3 03 C3 03 C2 03 C3 03 C3 03 C3 03 
      76.  00:AEAB  D5 00 D6 00 D7 00 D8 00 BE 00 BE 00 BE 00 BE 00 
      77.  00:AEBB                          dw      604,605,606,607,988,985,986,987,981,982,983,985,0,0,0,0,282,191,0,0,981,983,981,983,981,990,982,983,981,990,982,983
      77.  00:AEBB  5C 02 5D 02 5E 02 5F 02 DC 03 D9 03 DA 03 DB 03 
      77.  00:AECB  D5 03 D6 03 D7 03 D9 03 00 00 00 00 00 00 00 00 
      77.  00:AEDB  1A 01 BF 00 00 00 00 00 D5 03 D7 03 D5 03 D7 03 
      77.  00:AEEB  D5 03 DE 03 D6 03 D7 03 D5 03 DE 03 D6 03 D7 03 
      78.  00:AEFB                          dw      604,605,606,607,982,983,981,990,985,987,988,981,0,226,372,0,0,191,0,282,985,988,985,988,991,224,225,984,991,300,300,984
      78.  00:AEFB  5C 02 5D 02 5E 02 5F 02 D6 03 D7 03 D5 03 DE 03 
      78.  00:AF0B  D9 03 DB 03 DC 03 D5 03 00 00 E2 00 74 01 00 00 
      78.  00:AF1B  00 00 BF 00 00 00 1A 01 D9 03 DC 03 D9 03 DC 03 
      78.  00:AF2B  DF 03 E0 00 E1 00 D8 03 DF 03 2C 01 2C 01 D8 03 
      79.  00:AF3B                          dw      1009,605,606,607,989,984,991,989,0,0,0,991,0,258,373,0,0,255,223,223,981,990,982,983,991,256,257,984,991,300,300,984
      79.  00:AF3B  F1 03 5D 02 5E 02 5F 02 DD 03 D8 03 DF 03 DD 03 
      79.  00:AF4B  00 00 00 00 00 00 DF 03 00 00 02 01 75 01 00 00 
      79.  00:AF5B  00 00 FF 00 DF 00 DF 00 D5 03 DE 03 D6 03 D7 03 
      79.  00:AF6B  DF 03 00 01 01 01 D8 03 DF 03 2C 01 2C 01 D8 03 
      80.  00:AF7B                          dw      604,605,606,1009,987,988,985,986,0,0,0,985,0,0,0,0,283,0,0,0,985,986,987,988,985,986,987,988,985,986,987,988
      80.  00:AF7B  5C 02 5D 02 5E 02 F1 03 DB 03 DC 03 D9 03 DA 03 
      80.  00:AF8B  00 00 00 00 00 00 D9 03 00 00 00 00 00 00 00 00 
      80.  00:AF9B  1B 01 00 00 00 00 00 00 D9 03 DA 03 DB 03 DC 03 
      80.  00:AFAB  D9 03 DA 03 DB 03 DC 03 D9 03 DA 03 DB 03 DC 03 
      81.  00:AFBB                          dw      0,0,0,0,0,0,0,0,1016,1017,1016,1017,2,2,2,2,2,2,668,669,2,2,2,2,2,2,249,2,1016,1017,1016,1017
      81.  00:AFBB  00 00 00 00 00 00 00 00 00 00 00 00 00 00 00 00 
      81.  00:AFCB  F8 03 F9 03 F8 03 F9 03 02 00 02 00 02 00 02 00 
      81.  00:AFDB  02 00 02 00 9C 02 9D 02 02 00 02 00 02 00 02 00 
      81.  00:AFEB  02 00 02 00 F9 00 02 00 F8 03 F9 03 F8 03 F9 03 
      82.  00:AFFB                          dw      0,372,226,0,0,0,0,0,149,150,151,152,2,249,2,2,668,669,1018,1019,2,250,2,2,2,2,2,2,1018,1019,1018,1019
      82.  00:AFFB  00 00 74 01 E2 00 00 00 00 00 00 00 00 00 00 00 
      82.  00:B00B  95 00 96 00 97 00 98 00 02 00 F9 00 02 00 02 00 
      82.  00:B01B  9C 02 9D 02 FA 03 FB 03 02 00 FA 00 02 00 02 00 
      82.  00:B02B  02 00 02 00 02 00 02 00 FA 03 FB 03 FA 03 FB 03 
      83.  00:B03B                          dw      0,376,258,0,223,254,0,0,181,182,183,184,2,2,2,2,1020,1021,1020,1021,2,2,2,2,1020,1021,1020,1021,1020,1021,132,133
      83.  00:B03B  00 00 78 01 02 01 00 00 DF 00 FE 00 00 00 00 00 
      83.  00:B04B  B5 00 B6 00 B7 00 B8 00 02 00 02 00 02 00 02 00 
      83.  00:B05B  FC 03 FD 03 FC 03 FD 03 02 00 02 00 02 00 02 00 
      83.  00:B06B  FC 03 FD 03 FC 03 FD 03 FC 03 FD 03 84 00 85 00 
      84.  00:B07B                          dw      0,0,0,0,0,255,223,223,213,214,215,216,1022,1023,1022,1023,1022,1023,1022,1023,668,669,1022,1023,1022,1023,1022,1023,132,133,2,2
      84.  00:B07B  00 00 00 00 00 00 00 00 00 00 FF 00 DF 00 DF 00 
      84.  00:B08B  D5 00 D6 00 D7 00 D8 00 FE 03 FF 03 FE 03 FF 03 
      84.  00:B09B  FE 03 FF 03 FE 03 FF 03 9C 02 9D 02 FE 03 FF 03 
      84.  00:B0AB  FE 03 FF 03 FE 03 FF 03 84 00 85 00 02 00 02 00 
      85.  00:B0BB                          dw      1016,1017,1016,1017,1016,2,2,2,2,2,2,1017,2,2,2,2,2,2,2,2,2,2,2,2,1016,1017,1016,1017,1016,1017,1016,1017
      85.  00:B0BB  F8 03 F9 03 F8 03 F9 03 F8 03 02 00 02 00 02 00 
      85.  00:B0CB  02 00 02 00 02 00 F9 03 02 00 02 00 02 00 02 00 
      85.  00:B0DB  02 00 02 00 02 00 02 00 02 00 02 00 02 00 02 00 
      85.  00:B0EB  F8 03 F9 03 F8 03 F9 03 F8 03 F9 03 F8 03 F9 03 
      86.  00:B0FB                          dw      2,382,383,382,1018,2,250,2,2,2,2,1019,2,2,2,2,760,761,762,2,2,2,2,248,382,1018,1019,1018,1018,1019,1018,1019
      86.  00:B0FB  02 00 7E 01 7F 01 7E 01 FA 03 02 00 FA 00 02 00 
      86.  00:B10B  02 00 02 00 02 00 FB 03 02 00 02 00 02 00 02 00 
      86.  00:B11B  F8 02 F9 02 FA 02 02 00 02 00 02 00 02 00 F8 00 
      86.  00:B12B  7E 01 FA 03 FB 03 FA 03 FA 03 FB 03 FA 03 FB 03 
      87.  00:B13B                          dw      2,381,2,381,1020,2,2,2,2,2,2,1021,2,766,767,2,763,764,765,2,2,2,2,2,381,134,135,1020,1021,1021,1020,1021
      87.  00:B13B  02 00 7D 01 02 00 7D 01 FC 03 02 00 02 00 02 00 
      87.  00:B14B  02 00 02 00 02 00 FD 03 02 00 FE 02 FF 02 02 00 
      87.  00:B15B  FB 02 FC 02 FD 02 02 00 02 00 02 00 02 00 02 00 
      87.  00:B16B  7D 01 86 00 87 00 FC 03 FD 03 FD 03 FC 03 FD 03 
      88.  00:B17B                          dw      2,2,2,2,1022,1023,1022,1023,1022,1023,1022,1023,1022,1023,1022,1023,1022,1023,1022,1023,1022,1023,670,671,250,2,2,134,135,1023,1022,1023
      88.  00:B17B  02 00 02 00 02 00 02 00 FE 03 FF 03 FE 03 FF 03 
      88.  00:B18B  FE 03 FF 03 FE 03 FF 03 FE 03 FF 03 FE 03 FF 03 
      88.  00:B19B  FE 03 FF 03 FE 03 FF 03 FE 03 FF 03 9E 02 9F 02 
      88.  00:B1AB  FA 00 02 00 02 00 86 00 87 00 FF 03 FE 03 FF 03 
      89.  00:B1BB                          dw      2,2,134,135,272,273,275,2,272,273,275,2,2,2,2,2,248,2,189,2,2,2,189,1,1,1,1,1,1016,1017,1016,2
      89.  00:B1BB  02 00 02 00 86 00 87 00 10 01 11 01 13 01 02 00 
      89.  00:B1CB  10 01 11 01 13 01 02 00 02 00 02 00 02 00 02 00 
      89.  00:B1DB  F8 00 02 00 BD 00 02 00 02 00 02 00 BD 00 01 00 
      89.  00:B1EB  01 00 01 00 01 00 01 00 F8 03 F9 03 F8 03 02 00 
      90.  00:B1FB                          dw      2,248,2,2,272,273,275,2,272,273,275,2,2,2,2,2,2,2,189,2,2,2,189,1,1,1,1,1,1018,1019,1018,2
      90.  00:B1FB  02 00 F8 00 02 00 02 00 10 01 11 01 13 01 02 00 
      90.  00:B20B  10 01 11 01 13 01 02 00 02 00 02 00 02 00 02 00 
      90.  00:B21B  02 00 02 00 BD 00 02 00 02 00 02 00 BD 00 01 00 
      90.  00:B22B  01 00 01 00 01 00 01 00 FA 03 FB 03 FA 03 02 00 
      91.  00:B23B                          dw      2,2,2,2,272,273,275,2,272,273,275,2,249,2,994,1002,2,2,189,2,248,2,189,1,1,1,1,1,1020,1021,1020,2
      91.  00:B23B  02 00 02 00 02 00 02 00 10 01 11 01 13 01 02 00 
      91.  00:B24B  10 01 11 01 13 01 02 00 F9 00 02 00 E2 03 EA 03 
      91.  00:B25B  02 00 02 00 BD 00 02 00 F8 00 02 00 BD 00 01 00 
      91.  00:B26B  01 00 01 00 01 00 01 00 FC 03 FD 03 FC 03 02 00 
      92.  00:B27B                          dw      2,2,2,2,1022,1023,1022,1023,272,273,275,2,2,2,2,2,964,965,966,967,964,965,966,964,965,1,1,1,1022,1023,1022,2
      92.  00:B27B  02 00 02 00 02 00 02 00 FE 03 FF 03 FE 03 FF 03 
      92.  00:B28B  10 01 11 01 13 01 02 00 02 00 02 00 02 00 02 00 
      92.  00:B29B  C4 03 C5 03 C6 03 C7 03 C4 03 C5 03 C6 03 C4 03 
      92.  00:B2AB  C5 03 01 00 01 00 01 00 FE 03 FF 03 FE 03 02 00 
      93.  00:B2BB                          dw      132,133,2,2,2,869,870,871,2,248,2,2,868,869,870,871,2,249,2,2,2,2,2,2,2,2,2,2,145,146,147,148
      93.  00:B2BB  84 00 85 00 02 00 02 00 02 00 65 03 66 03 67 03 
      93.  00:B2CB  02 00 F8 00 02 00 02 00 64 03 65 03 66 03 67 03 
      93.  00:B2DB  02 00 F9 00 02 00 02 00 02 00 02 00 02 00 02 00 
      93.  00:B2EB  02 00 02 00 02 00 02 00 91 00 92 00 93 00 94 00 
      94.  00:B2FB                          dw      2,2,2,2,900,901,902,903,2,2,2,903,900,901,902,903,2,2,2,2,760,761,762,2,2,2,2,249,177,178,179,180
      94.  00:B2FB  02 00 02 00 02 00 02 00 84 03 85 03 86 03 87 03 
      94.  00:B30B  02 00 02 00 02 00 87 03 84 03 85 03 86 03 87 03 
      94.  00:B31B  02 00 02 00 02 00 02 00 F8 02 F9 02 FA 02 02 00 
      94.  00:B32B  02 00 02 00 02 00 F9 00 B1 00 B2 00 B3 00 B4 00 
      95.  00:B33B                          dw      2,2,2,2,932,933,934,935,2,2,934,935,932,933,934,935,2,766,767,2,763,764,765,2,2,2,2,2,209,210,211,212
      95.  00:B33B  02 00 02 00 02 00 02 00 A4 03 A5 03 A6 03 A7 03 
      95.  00:B34B  02 00 02 00 A6 03 A7 03 A4 03 A5 03 A6 03 A7 03 
      95.  00:B35B  02 00 FE 02 FF 02 02 00 FB 02 FC 02 FD 02 02 00 
      95.  00:B36B  02 00 02 00 02 00 02 00 D1 00 D2 00 D3 00 D4 00 
      96.  00:B37B                          dw      2,249,2,2,964,965,966,967,2,965,966,967,964,965,966,967,964,965,966,967,964,965,966,967,964,965,966,967,0,0,0,0
      96.  00:B37B  02 00 F9 00 02 00 02 00 C4 03 C5 03 C6 03 C7 03 
      96.  00:B38B  02 00 C5 03 C6 03 C7 03 C4 03 C5 03 C6 03 C7 03 
      96.  00:B39B  C4 03 C5 03 C6 03 C7 03 C4 03 C5 03 C6 03 C7 03 
      96.  00:B3AB  C4 03 C5 03 C6 03 C7 03 00 00 00 00 00 00 00 00 
      97.  00:B3BB                          dw      138,139,140,141,261,235,981,983,282,235,259,260,283,235,235,235,235,235,981,983,985,988,981,983,259,260,261,235,235,235,235,283
      97.  00:B3BB  8A 00 8B 00 8C 00 8D 00 05 01 EB 00 D5 03 D7 03 
      97.  00:B3CB  1A 01 EB 00 03 01 04 01 1B 01 EB 00 EB 00 EB 00 
      97.  00:B3DB  EB 00 EB 00 D5 03 D7 03 D9 03 DC 03 D5 03 D7 03 
      97.  00:B3EB  03 01 04 01 05 01 EB 00 EB 00 EB 00 EB 00 1B 01 
      98.  00:B3FB                          dw      170,171,172,173,261,235,991,984,235,235,259,260,235,235,235,235,235,235,991,984,283,0,991,984,259,260,261,235,235,235,235,235
      98.  00:B3FB  AA 00 AB 00 AC 00 AD 00 05 01 EB 00 DF 03 D8 03 
      98.  00:B40B  EB 00 EB 00 03 01 04 01 EB 00 EB 00 EB 00 EB 00 
      98.  00:B41B  EB 00 EB 00 DF 03 D8 03 1B 01 00 00 DF 03 D8 03 
      98.  00:B42B  03 01 04 01 05 01 EB 00 EB 00 EB 00 EB 00 EB 00 
      99.  00:B43B                          dw      202,203,204,205,261,235,991,984,235,235,259,260,235,235,227,228,229,235,991,984,0,0,991,984,259,260,261,235,227,228,229,235
      99.  00:B43B  CA 00 CB 00 CC 00 CD 00 05 01 EB 00 DF 03 D8 03 
      99.  00:B44B  EB 00 EB 00 03 01 04 01 EB 00 EB 00 E3 00 E4 00 
      99.  00:B45B  E5 00 EB 00 DF 03 D8 03 00 00 00 00 DF 03 D8 03 
      99.  00:B46B  03 01 04 01 05 01 EB 00 E3 00 E4 00 E5 00 EB 00 
     100.  00:B47B                          dw      962,963,963,963,962,963,985,988,962,963,963,963,235,235,259,260,261,235,985,988,0,0,985,988,962,963,963,963,259,260,261,235
     100.  00:B47B  C2 03 C3 03 C3 03 C3 03 C2 03 C3 03 D9 03 DC 03 
     100.  00:B48B  C2 03 C3 03 C3 03 C3 03 EB 00 EB 00 03 01 04 01 
     100.  00:B49B  05 01 EB 00 D9 03 DC 03 00 00 00 00 D9 03 DC 03 
     100.  00:B4AB  C2 03 C3 03 C3 03 C3 03 03 01 04 01 05 01 EB 00 
     101.  00:B4BB                          dw      985,986,987,988,0,230,231,232,0,0,0,0,0,232,232,232,987,987,987,988,235,235,235,235,236,237,236,237,236,237,236,238
     101.  00:B4BB  D9 03 DA 03 DB 03 DC 03 00 00 E6 00 E7 00 E8 00 
     101.  00:B4CB  00 00 00 00 00 00 00 00 00 00 E8 00 E8 00 E8 00 
     101.  00:B4DB  DB 03 DB 03 DB 03 DC 03 EB 00 EB 00 EB 00 EB 00 
     101.  00:B4EB  EC 00 ED 00 EC 00 ED 00 EC 00 ED 00 EC 00 EE 00 
     102.  00:B4FB                          dw      0,0,0,0,0,262,263,264,0,0,0,282,0,262,263,264,0,0,0,0,235,235,283,235,370,371,370,371,370,371,370,368
     102.  00:B4FB  00 00 00 00 00 00 00 00 00 00 06 01 07 01 08 01 
     102.  00:B50B  00 00 00 00 00 00 1A 01 00 00 06 01 07 01 08 01 
     102.  00:B51B  00 00 00 00 00 00 00 00 EB 00 EB 00 1B 01 EB 00 
     102.  00:B52B  72 01 73 01 72 01 73 01 72 01 73 01 72 01 70 01 
     103.  00:B53B                          dw      0,283,0,0,0,262,263,264,0,0,0,0,0,262,263,264,0,0,0,0,235,235,235,235,369,369,369,369,369,369,964,965
     103.  00:B53B  00 00 1B 01 00 00 00 00 00 00 06 01 07 01 08 01 
     103.  00:B54B  00 00 00 00 00 00 00 00 00 00 06 01 07 01 08 01 
     103.  00:B55B  00 00 00 00 00 00 00 00 EB 00 EB 00 EB 00 EB 00 
     103.  00:B56B  71 01 71 01 71 01 71 01 71 01 71 01 C4 03 C5 03 
     104.  00:B57B                          dw      0,0,0,0,962,963,963,963,962,598,599,963,962,963,963,963,0,233,234,0,235,235,235,235,964,965,966,967,964,965,966,967
     104.  00:B57B  00 00 00 00 00 00 00 00 C2 03 C3 03 C3 03 C3 03 
     104.  00:B58B  C2 03 56 02 57 02 C3 03 C2 03 C3 03 C3 03 C3 03 
     104.  00:B59B  00 00 E9 00 EA 00 00 00 EB 00 EB 00 EB 00 EB 00 
     104.  00:B5AB  C4 03 C5 03 C6 03 C7 03 C4 03 C5 03 C6 03 C7 03 
     105.  00:B5BB                          dw      985,986,987,988,2,2,2,1017,2,2,2,1017,1022,1023,1022,1023,1022,1023,1022,1023,670,671,2,2,2,2,251,2,2,2,2,249
     105.  00:B5BB  D9 03 DA 03 DB 03 DC 03 02 00 02 00 02 00 F9 03 
     105.  00:B5CB  02 00 02 00 02 00 F9 03 FE 03 FF 03 FE 03 FF 03 
     105.  00:B5DB  FE 03 FF 03 FE 03 FF 03 9E 02 9F 02 02 00 02 00 
     105.  00:B5EB  02 00 02 00 FB 00 02 00 02 00 02 00 02 00 F9 00 
     106.  00:B5FB                          dw      0,0,191,0,2,248,2,1019,2,2,2,1019,272,273,275,2,2,864,2,2,1020,1021,670,671,939,939,939,939,939,939,939,939
     106.  00:B5FB  00 00 00 00 BF 00 00 00 02 00 F8 00 02 00 FB 03 
     106.  00:B60B  02 00 02 00 02 00 FB 03 10 01 11 01 13 01 02 00 
     106.  00:B61B  02 00 60 03 02 00 02 00 FC 03 FD 03 9E 02 9F 02 
     106.  00:B62B  AB 03 AB 03 AB 03 AB 03 AB 03 AB 03 AB 03 AB 03 
     107.  00:B63B                          dw      0,252,253,0,2,2,2,1021,1002,1002,1002,1021,272,273,275,2,2,896,2,2,1020,1021,1020,1021,971,971,971,971,971,971,971,971
     107.  00:B63B  00 00 FC 00 FD 00 00 00 02 00 02 00 02 00 FD 03 
     107.  00:B64B  EA 03 EA 03 EA 03 FD 03 10 01 11 01 13 01 02 00 
     107.  00:B65B  02 00 80 03 02 00 02 00 FC 03 FD 03 FC 03 FD 03 
     107.  00:B66B  CB 03 CB 03 CB 03 CB 03 CB 03 CB 03 CB 03 CB 03 
     108.  00:B67B                          dw      0,191,0,0,2,2,2,1023,2,2,2,1023,272,273,275,2,2,928,2,2,1022,1023,1022,1023,964,965,2,2,2,2,2,2
     108.  00:B67B  00 00 BF 00 00 00 00 00 02 00 02 00 02 00 FF 03 
     108.  00:B68B  02 00 02 00 02 00 FF 03 10 01 11 01 13 01 02 00 
     108.  00:B69B  02 00 A0 03 02 00 02 00 FE 03 FF 03 FE 03 FF 03 
     108.  00:B6AB  C4 03 C5 03 02 00 02 00 02 00 02 00 02 00 02 00 
     109.  00:B6BB                          dw      2,2,248,2,2,2,2,2,239,2,2,239,2,240,241,2,962,963,963,963,2,2,2,871,265,266,266,266,266,266,266,266
     109.  00:B6BB  02 00 02 00 F8 00 02 00 02 00 02 00 02 00 02 00 
     109.  00:B6CB  EF 00 02 00 02 00 EF 00 02 00 F0 00 F1 00 02 00 
     109.  00:B6DB  C2 03 C3 03 C3 03 C3 03 02 00 02 00 02 00 67 03 
     109.  00:B6EB  09 01 0A 01 0A 01 0A 01 0A 01 0A 01 0A 01 0A 01 
     110.  00:B6FB                          dw      939,939,939,939,2,250,2,2,239,250,2,239,242,243,243,244,1018,1019,1018,1019,2,901,902,903,2,248,2,2,2,2,2,249
     110.  00:B6FB  AB 03 AB 03 AB 03 AB 03 02 00 FA 00 02 00 02 00 
     110.  00:B70B  EF 00 FA 00 02 00 EF 00 F2 00 F3 00 F3 00 F4 00 
     110.  00:B71B  FA 03 FB 03 FA 03 FB 03 02 00 85 03 86 03 87 03 
     110.  00:B72B  02 00 F8 00 02 00 02 00 02 00 02 00 02 00 F9 00 
     111.  00:B73B                          dw      971,971,971,971,972,973,973,974,975,976,976,977,239,2,2,239,1020,1021,1020,1021,2,933,934,935,2,2,2,248,2,2,2,2
     111.  00:B73B  CB 03 CB 03 CB 03 CB 03 CC 03 CD 03 CD 03 CE 03 
     111.  00:B74B  CF 03 D0 03 D0 03 D1 03 EF 00 02 00 02 00 EF 00 
     111.  00:B75B  FC 03 FD 03 FC 03 FD 03 02 00 A5 03 A6 03 A7 03 
     111.  00:B76B  02 00 02 00 02 00 F8 00 02 00 02 00 02 00 02 00 
     112.  00:B77B                          dw      2,965,966,967,1022,1023,1022,1023,1022,1023,1022,1023,239,2,249,239,1022,1023,1022,1023,964,965,966,967,2,2,2,2,2,2,2,2
     112.  00:B77B  02 00 C5 03 C6 03 C7 03 FE 03 FF 03 FE 03 FF 03 
     112.  00:B78B  FE 03 FF 03 FE 03 FF 03 EF 00 02 00 F9 00 EF 00 
     112.  00:B79B  FE 03 FF 03 FE 03 FF 03 C4 03 C5 03 C6 03 C7 03 
     112.  00:B7AB  02 00 02 00 02 00 02 00 02 00 02 00 02 00 02 00 
     113.  00:B7BB                          dw      266,266,266,267,0,191,0,0,2,2,251,2,1020,1021,235,235,235,282,235,235,1020,235,235,283,1020,1021,1021,1018,1019,1018,1019,1018
     113.  00:B7BB  0A 01 0A 01 0A 01 0B 01 00 00 BF 00 00 00 00 00 
     113.  00:B7CB  02 00 02 00 FB 00 02 00 FC 03 FD 03 EB 00 EB 00 
     113.  00:B7DB  EB 00 1A 01 EB 00 EB 00 FC 03 EB 00 EB 00 1B 01 
     113.  00:B7EB  FC 03 FD 03 FD 03 FA 03 FB 03 FA 03 FB 03 FA 03 
     114.  00:B7FB                          dw      2,2,2,250,0,191,0,0,2,2,2,2,1020,1021,1020,235,235,235,235,235,1020,235,235,235,1020,1021,1021,152,235,235,283,235
     114.  00:B7FB  02 00 02 00 02 00 FA 00 00 00 BF 00 00 00 00 00 
     114.  00:B80B  02 00 02 00 02 00 02 00 FC 03 FD 03 FC 03 EB 00 
     114.  00:B81B  EB 00 EB 00 EB 00 EB 00 FC 03 EB 00 EB 00 EB 00 
     114.  00:B82B  FC 03 FD 03 FD 03 98 00 EB 00 EB 00 1B 01 EB 00 
     115.  00:B83B                          dw      2,2,2,2,0,191,0,0,2,250,2,2,1020,1021,1020,1021,1020,1021,1020,1021,1020,282,235,235,1020,182,183,184,235,235,235,235
     115.  00:B83B  02 00 02 00 02 00 02 00 00 00 BF 00 00 00 00 00 
     115.  00:B84B  02 00 FA 00 02 00 02 00 FC 03 FD 03 FC 03 FD 03 
     115.  00:B85B  FC 03 FD 03 FC 03 FD 03 FC 03 1A 01 EB 00 EB 00 
     115.  00:B86B  FC 03 B6 00 B7 00 B8 00 EB 00 EB 00 EB 00 EB 00 
     116.  00:B87B                          dw      2,251,2,2,223,253,0,283,2,2,128,129,1022,1023,1022,1023,1022,1023,1022,1023,1022,235,235,235,1022,214,215,216,235,235,235,282
     116.  00:B87B  02 00 FB 00 02 00 02 00 DF 00 FD 00 00 00 1B 01 
     116.  00:B88B  02 00 02 00 80 00 81 00 FE 03 FF 03 FE 03 FF 03 
     116.  00:B89B  FE 03 FF 03 FE 03 FF 03 FE 03 EB 00 EB 00 EB 00 
     116.  00:B8AB  FE 03 D6 00 D7 00 D8 00 EB 00 EB 00 EB 00 1A 01 
    4392   00:B8BB                      
    4393   00:B8BB  00 (1861)           				ds		#C000-$													;llenamos de 0 hasta el final del bloque
    4394   00:C000                      
    4395   00:C000                      ; ********** FIN PAGINA 003 DEL MEGAROM **********)))			
    4396   00:C000                      ; --------------------------------------------------
    4397   00:C000                      
    4398   00:C000                      ; --------------------------------------------------
    4399   00:C000                      ; (((********** PAGINA 004 DEL MEGAROM **********
    4400   00:C000                      
    4401   00:C000                      				org		#8000
    4402   00:8000                      
    4403   00:8000  (4000)              MARCADOR_B_1:	incbin	"GRAFICOS/MARCADOR1.DAT"
    4404   00:C000                      
    4405   00:C000  00 (0)              				ds		#C000-$													;llenamos de 0 hasta el final del bloque
    4406   00:C000                      
    4407   00:C000                      ; ********** FIN PAGINA 004 DEL MEGAROM **********)))			
    4408   00:C000                      ; --------------------------------------------------
    4409   00:C000                      
    4410   00:C000                      ; --------------------------------------------------
    4411   00:C000                      ; (((********** PAGINA 005 DEL MEGAROM **********
    4412   00:C000                      
    4413   00:C000                      				org		#8000
    4414   00:8000                      
    4415   00:8000  (4000)              MARCADOR_B_2:	incbin	"GRAFICOS/MARCADOR2.DAT"
    4416   00:C000                      
    4417   00:C000  00 (0)              				ds		#C000-$													;llenamos de 0 hasta el final del bloque
    4418   00:C000                      
    4419   00:C000                      ; ********** FIN PAGINA 005 DEL MEGAROM **********)))			
    4420   00:C000                      ; --------------------------------------------------
    4421   00:C000                      
    4422   00:C000                      ; --------------------------------------------------
    4423   00:C000                      ; (((********** PAGINA 006 DEL MEGAROM **********
    4424   00:C000                      
    4425   00:C000                      				org		#8000
    4426   00:8000                      
    4427   00:8000  (4000)              SPR_EXPO_1_1:	incbin	"GRAFICOS/SPRITES EXPLORADOR 11.DAT"
    4428   00:C000                      
    4429   00:C000  00 (0)              				ds		#C000-$													;llenamos de 0 hasta el final del bloque
    4430   00:C000                      
    4431   00:C000                      ; ********** FIN PAGINA 006 DEL MEGAROM **********)))			
    4432   00:C000                      ; --------------------------------------------------
    4433   00:C000                      
    4434   00:C000                      ; --------------------------------------------------
    4435   00:C000                      ; (((********** PAGINA 007 DEL MEGAROM **********
    4436   00:C000                      
    4437   00:C000                      				org		#8000
    4438   00:8000                      
    4439   00:8000  (4000)              SPR_EXPO_1_2:	incbin	"GRAFICOS/SPRITES EXPLORADOR 12.DAT"
    4440   00:C000                      
    4441   00:C000  00 (0)              				ds		#C000-$													;llenamos de 0 hasta el final del bloque
    4442   00:C000                      
    4443   00:C000                      ; ********** FIN PAGINA 007 DEL MEGAROM **********)))			
    4444   00:C000                      ; --------------------------------------------------
    4445   00:C000                      ; --------------------------------------------------
    4446   00:C000                      ; (((********** PAGINA 008 DEL MEGAROM **********
    4447   00:C000                      
    4448   00:C000                      				org		#8000
    4449   00:8000                      
    4450   00:8000                      
    4451   00:8000                      
    4452   00:8000  00 (16384)          				ds		#C000-$													;llenamos de 0 hasta el final del bloque
    4453   00:C000                      
    4454   00:C000                      ; ********** FIN PAGINA 008 DEL MEGAROM **********)))			
    4455   00:C000                      ; --------------------------------------------------
    4456   00:C000                      ; --------------------------------------------------
    4457   00:C000                      ; (((********** PAGINA 009 DEL MEGAROM **********
    4458   00:C000                      
    4459   00:C000                      				org		#8000
    4460   00:8000                      
    4461   00:8000                      
    4462   00:8000                      
    4463   00:8000  00 (16384)          				ds		#C000-$													;llenamos de 0 hasta el final del bloque
    4464   00:C000                      
    4465   00:C000                      ; ********** FIN PAGINA 009 DEL MEGAROM **********)))			
    4466   00:C000                      ; --------------------------------------------------
    4467   00:C000                      ; --------------------------------------------------
    4468   00:C000                      ; (((********** PAGINA 010 DEL MEGAROM **********
    4469   00:C000                      
    4470   00:C000                      				org		#8000
    4471   00:8000                      
    4472   00:8000                      
    4473   00:8000                      
    4474   00:8000  00 (16384)          				ds		#C000-$													;llenamos de 0 hasta el final del bloque
    4475   00:C000                      
    4476   00:C000                      ; ********** FIN PAGINA 010 DEL MEGAROM **********)))			
    4477   00:C000                      ; --------------------------------------------------
    4478   00:C000                      ; --------------------------------------------------
    4479   00:C000                      ; (((********** PAGINA 011 DEL MEGAROM **********
    4480   00:C000                      
    4481   00:C000                      				org		#8000
    4482   00:8000                      
    4483   00:8000                      
    4484   00:8000                      
    4485   00:8000  00 (16384)          				ds		#C000-$													;llenamos de 0 hasta el final del bloque
    4486   00:C000                      
    4487   00:C000                      ; ********** FIN PAGINA 011 DEL MEGAROM **********)))			
    4488   00:C000                      ; --------------------------------------------------
    4489   00:C000                      ; --------------------------------------------------
    4490   00:C000                      ; (((********** PAGINA 012 DEL MEGAROM **********
    4491   00:C000                      
    4492   00:C000                      				org		#8000
    4493   00:8000                      
    4494   00:8000                      
    4495   00:8000                      
    4496   00:8000  00 (16384)          				ds		#C000-$													;llenamos de 0 hasta el final del bloque
    4497   00:C000                      
    4498   00:C000                      ; ********** FIN PAGINA 012 DEL MEGAROM **********)))			
    4499   00:C000                      ; --------------------------------------------------
    4500   00:C000                      ; --------------------------------------------------
    4501   00:C000                      ; (((********** PAGINA 013 DEL MEGAROM **********
    4502   00:C000                      
    4503   00:C000                      				org		#8000
    4504   00:8000                      
    4505   00:8000                      
    4506   00:8000                      
    4507   00:8000  00 (16384)          				ds		#C000-$													;llenamos de 0 hasta el final del bloque
    4508   00:C000                      
    4509   00:C000                      ; ********** FIN PAGINA 013 DEL MEGAROM **********)))			
    4510   00:C000                      ; --------------------------------------------------
    4511   00:C000                      ; --------------------------------------------------
    4512   00:C000                      ; (((********** PAGINA 014 DEL MEGAROM **********
    4513   00:C000                      
    4514   00:C000                      				org		#8000
    4515   00:8000                      
    4516   00:8000                      
    4517   00:8000                      
    4518   00:8000  00 (16384)          				ds		#C000-$													;llenamos de 0 hasta el final del bloque
    4519   00:C000                      
    4520   00:C000                      ; ********** FIN PAGINA 014 DEL MEGAROM **********)))			
    4521   00:C000                      ; --------------------------------------------------
    4522   00:C000                      ; --------------------------------------------------
    4523   00:C000                      ; (((********** PAGINA 015 DEL MEGAROM **********
    4524   00:C000                      
    4525   00:C000                      				org		#8000
    4526   00:8000                      
    4527   00:8000                      
    4528   00:8000                      
    4529   00:8000  00 (16384)          				ds		#C000-$													;llenamos de 0 hasta el final del bloque
    4530   00:C000                      
    4531   00:C000                      ; ********** FIN PAGINA 015 DEL MEGAROM **********)))			
    4532   00:C000                      ; --------------------------------------------------
    4533   00:C000                      ; --------------------------------------------------
    4534   00:C000                      ; (((********** PAGINA 016 DEL MEGAROM **********
    4535   00:C000                      
    4536   00:C000                      				org		#8000
    4537   00:8000                      
    4538   00:8000  (0400)              SPR_EXPO_ASP:	incbin	"GRAFICOS/SPRITES EXPLORADOR ASPIRADORA.DAT" 	; 32X64  (BYTES 16*64)
    4539   00:8400  (0400)              SPR_EXPO_UMB:	incbin	"GRAFICOS/SPRITES EXPLORADOR UMBRELLA.DAT" 		; 32X64  (BYTES 16*64)
    4540   00:8800  (0200)              SPR_EXPO_BAL:	incbin	"GRAFICOS/SPRITES EXPLORADOR BALLOON.DAT" 		; 32X32	 (BYTES 16*32)
    4541   00:8A00  (0800)              SPR_EXPO_EXP:	incbin	"GRAFICOS/SPRITES EXPLORADOR EXPLOTE.DAT" 		; 128X32 (BYTES 64*32)
    4542   00:9200  (1000)              SPR_EXPO_FLU:	incbin	"GRAFICOS/SPRITES EXPLORADOR FLUTE.DAT" 		; 128X64 (BYTES 64*64)
    4543   00:A200  (1000)              SPR_EXPO_WAC:	incbin	"GRAFICOS/SPRITES EXPLORADOR WALK COMPLETE.DAT" ; 128X64 (BYTES 64*64)
    4544   00:B200  (0800)              SPR_EXPO_CAN:	incbin	"GRAFICOS/SPRITES EXPLORADOR CANYON.DAT" 		; 128X32 (BYTES 64*32)
    4545   00:BA00                      
    4546   00:BA00  00 (1536)           				ds		#C000-$													;llenamos de 0 hasta el final del bloque
    4547   00:C000                      
    4548   00:C000                      ; ********** FIN PAGINA 016 DEL MEGAROM **********)))			
    4549   00:C000                      ; --------------------------------------------------
    4550   00:C000                      ; --------------------------------------------------
    4551   00:C000                      ; (((********** PAGINA 017 DEL MEGAROM **********
    4552   00:C000                      
    4553   00:C000                      				org		#8000
    4554   00:8000                      
    4555   00:8000                      
    4556   00:8000                      
    4557   00:8000  00 (16384)          				ds		#C000-$													;llenamos de 0 hasta el final del bloque
    4558   00:C000                      
    4559   00:C000                      ; ********** FIN PAGINA 017 DEL MEGAROM **********)))			
    4560   00:C000                      ; --------------------------------------------------
    4561   00:C000                      ; --------------------------------------------------
    4562   00:C000                      ; (((********** PAGINA 018 DEL MEGAROM **********
    4563   00:C000                      
    4564   00:C000                      				org		#8000
    4565   00:8000                      
    4566   00:8000                      
    4567   00:8000                      
    4568   00:8000  00 (16384)          				ds		#C000-$													;llenamos de 0 hasta el final del bloque
    4569   00:C000                      
    4570   00:C000                      ; ********** FIN PAGINA 018 DEL MEGAROM **********)))			
    4571   00:C000                      ; --------------------------------------------------
    4572   00:C000                      ; --------------------------------------------------
    4573   00:C000                      ; (((********** PAGINA 019 DEL MEGAROM **********
    4574   00:C000                      
    4575   00:C000                      				org		#8000
    4576   00:8000                      
    4577   00:8000                      
    4578   00:8000                      
    4579   00:8000  00 (16384)          				ds		#C000-$													;llenamos de 0 hasta el final del bloque
    4580   00:C000                      
    4581   00:C000                      ; ********** FIN PAGINA 019 DEL MEGAROM **********)))			
    4582   00:C000                      ; --------------------------------------------------
    4583   00:C000                      ; --------------------------------------------------
    4584   00:C000                      ; (((********** PAGINA 020 DEL MEGAROM **********
    4585   00:C000                      
    4586   00:C000                      				org		#8000
    4587   00:8000                      
    4588   00:8000                      
    4589   00:8000                      
    4590   00:8000  00 (16384)          				ds		#C000-$													;llenamos de 0 hasta el final del bloque
    4591   00:C000                      
    4592   00:C000                      ; ********** FIN PAGINA 020 DEL MEGAROM **********)))			
    4593   00:C000                      ; --------------------------------------------------
    4594   00:C000                      ; --------------------------------------------------
    4595   00:C000                      ; (((********** PAGINA 021 DEL MEGAROM **********
    4596   00:C000                      
    4597   00:C000                      				org		#8000
    4598   00:8000                      
    4599   00:8000                      ANIMACION_CANYON:
    4600   00:8000                      
    4601   00:8000  3A 2C C0            		ld		a,(POLVORA_DECIDIDA)
    4602   00:8003  B7                  		or		a
    4603   00:8004  C2 32 80            		jp		nz,.ya_sabemos_lo_que_es
    4604   00:8007                      
    4605   00:8007                      .miramos_polvora_peque:
    4606   00:8007                      
    4607   00:8007  3A EE C0            		ld		a,(POLVORA_PEQUE)
    4608   00:800A  FE 02               		cp		2
    4609   00:800C  C2 17 80            		jp		nz,.miramos_polvora_med
    4610   00:800F                      
    4611   00:800F  3E 01               		ld		a,1
    4612   00:8011  32 2C C0            		ld		(POLVORA_DECIDIDA),a
    4613   00:8014  C3 32 80            		jp		.ya_sabemos_lo_que_es
    4614   00:8017                      
    4615   00:8017                      .miramos_polvora_med:
    4616   00:8017                      
    4617   00:8017  3A EF C0            		ld		a,(POLVORA_MEDIA)
    4618   00:801A  FE 02               		cp		2
    4619   00:801C  C2 27 80            		jp		nz,.miramos_polvora_gra
    4620   00:801F                      
    4621   00:801F  3E 02               		ld		a,2
    4622   00:8021  32 2C C0            		ld		(POLVORA_DECIDIDA),a
    4623   00:8024  C3 32 80            		jp		.ya_sabemos_lo_que_es
    4624   00:8027                      
    4625   00:8027                      .miramos_polvora_gra:
    4626   00:8027                      
    4627   00:8027  3A F0 C0            		ld		a,(POLVORA_GRAND)
    4628   00:802A  FE 02               		cp		2
    4629   00:802C  C0                  		ret		nz
    4630   00:802D                      
    4631   00:802D  3E 03               		ld		a,3
    4632   00:802F  32 2C C0            		ld		(POLVORA_DECIDIDA),a
    4633   00:8032                      
    4634   00:8032                      .ya_sabemos_lo_que_es:
    4635   00:8032                      
    4636   00:8032  3A 2C C0            		ld		a,(POLVORA_DECIDIDA)
    4637   00:8035  FE 01               		cp		1
    4638   00:8037  CA 46 80            		jp		z,.es_peque
    4639   00:803A  FE 02               		cp		2
    4640   00:803C  CA 4D 80            		jp		z,.es_medi
    4641   00:803F                      
    4642   00:803F                      .es_gran:
    4643   00:803F                      
    4644   00:803F  FD 21 53 82         		ld		iy,DATAS_CANYON_HIG
    4645   00:8043  C3 51 80            		jp		.leemos_datos
    4646   00:8046                      
    4647   00:8046                      .es_peque:
    4648   00:8046                      
    4649   00:8046  FD 21 9D 80         		ld		iy,DATAS_CANYON_LOW
    4650   00:804A  C3 51 80            		jp		.leemos_datos
    4651   00:804D                      
    4652   00:804D                      .es_medi:
    4653   00:804D                      
    4654   00:804D  FD 21 78 81         		ld		iy,DATAS_CANYON_MID
    4655   00:8051                      
    4656   00:8051                      .leemos_datos:
    4657   00:8051                      
    4658   00:8051  3A 2B C0            		ld		a,(ANIM_CAN)
    4659   00:8054  3D                  		dec		a
    4660   00:8055  FE 48               		cp		72
    4661   00:8057  CA 80 80            		jp		z,.se_acabo
    4662   00:805A                      
    4663   00:805A  47                  		ld		b,a
    4664   00:805B  80 80               [2]		add		b
    4665   00:805D                      
    4666   00:805D  5F                  		ld		e,a
    4667   00:805E  16 00               		ld		d,0
    4668   00:8060  FD 19               		add		iy,de
    4669   00:8062  DD 21 33 C0         		ld		ix,ATRIBUTOS_SPRITES
    4670   00:8066  FD 7E 00            		ld		a,(iy)
    4671   00:8069  CD 06 51            		call	COMUN_Y_CUATRO_SPRITES
    4672   00:806C  FD 7E 01            		ld		a,(iy+1)
    4673   00:806F  CD 16 51            		call	COMUN_PATRON_CUATRO_SPRITES
    4674   00:8072  FD 7E 02            		ld		a,(iy+2)
    4675   00:8075  CD F6 50            		call	COMUN_X_CUATRO_SPRITES
    4676   00:8078  3A 2B C0            		ld		a,(ANIM_CAN)
    4677   00:807B  3C                  		inc		a
    4678   00:807C  32 2B C0            		ld		(ANIM_CAN),a
    4679   00:807F  C9                  		ret
    4680   00:8080                      
    4681   00:8080                      .se_acabo:
    4682   00:8080                      		
    4683   00:8080  AF                  		xor		a
    4684   00:8081  32 2B C0            		ld		(ANIM_CAN),a
    4685   00:8084  32 2E C0            		ld		(QUE_SOY),a
    4686   00:8087  32 1B C0            		ld		(POSE_PROTA),a
    4687   00:808A  32 2C C0            		ld		(POLVORA_DECIDIDA),a
    4688   00:808D  DD 21 33 C0         		ld		ix,ATRIBUTOS_SPRITES
    4689   00:8091  DD 7E 02            		ld		a,(ix+2)
    4690   00:8094  FE DE               		cp		#de
    4691   00:8096  D8                  		ret		c
    4692   00:8097                      
    4693   00:8097  3E 04               		ld		a,4
    4694   00:8099  32 2D C0            		ld		(MUERTE),a
    4695   00:809C                      
    4696   00:809C  C9                  		ret
    4697   00:809D                      
    4698   00:809D                      ; Y,PATRON,X
    4699   00:809D                      
    4700   00:809D                      DATAS_CANYON_LOW:
    4701   00:809D                      
    4702   00:809D  42 00 1C            		db	#42,#00,#1c	
    4703   00:80A0  42 00 1C            		db	#42,#00,#1c	
    4704   00:80A3  42 00 1C            		db	#42,#00,#1c	
    4705   00:80A6  42 00 1C            		db	#42,#00,#1c	
    4706   00:80A9  42 00 1C            		db	#42,#00,#1c	
    4707   00:80AC  42 00 1C            		db	#42,#00,#1c	
    4708   00:80AF  42 00 1C            		db	#42,#00,#1c	
    4709   00:80B2  42 00 1C            		db	#42,#00,#1c	
    4710   00:80B5  42 00 1C            		db	#42,#00,#1c	
    4711   00:80B8  42 00 1C            		db	#42,#00,#1c	
    4712   00:80BB  32 04 1C            		db	#32,#04,#1c	
    4713   00:80BE  32 04 1C            		db	#32,#04,#1c	
    4714   00:80C1  32 04 1C            		db	#32,#04,#1c	
    4715   00:80C4  30 02 1E            		db	#30,#02,#1e	
    4716   00:80C7  30 02 1E            		db	#30,#02,#1e	
    4717   00:80CA  30 02 1E            		db	#30,#02,#1e	
    4718   00:80CD  2E 02 20            		db	#2e,#02,#20	
    4719   00:80D0  2E 02 20            		db	#2e,#02,#20	
    4720   00:80D3  2E 02 20            		db	#2e,#02,#20	
    4721   00:80D6  2C 02 24            		db	#2c,#02,#24	
    4722   00:80D9  2C 02 24            		db	#2c,#02,#24	
    4723   00:80DC  2C 02 24            		db	#2c,#02,#24	
    4724   00:80DF  2A 02 28            		db	#2a,#02,#28	
    4725   00:80E2  2A 02 28            		db	#2a,#02,#28	
    4726   00:80E5  2A 02 28            		db	#2a,#02,#28	
    4727   00:80E8  28 02 2C            		db	#28,#02,#2c	
    4728   00:80EB  28 02 2C            		db	#28,#02,#2c	
    4729   00:80EE  28 02 2C            		db	#28,#02,#2c	
    4730   00:80F1  28 02 30            		db	#28,#02,#30
    4731   00:80F4  28 02 30            		db	#28,#02,#30
    4732   00:80F7  28 02 30            		db	#28,#02,#30
    4733   00:80FA  28 02 34            		db	#28,#02,#34
    4734   00:80FD  28 02 34            		db	#28,#02,#34
    4735   00:8100  28 02 34            		db	#28,#02,#34
    4736   00:8103  28 06 38            		db	#28,#06,#38
    4737   00:8106  28 06 38            		db	#28,#06,#38
    4738   00:8109  28 06 38            		db	#28,#06,#38
    4739   00:810C  2A 06 3C            		db	#2a,#06,#3c
    4740   00:810F  2A 06 3C            		db	#2a,#06,#3c
    4741   00:8112  2A 06 3C            		db	#2a,#06,#3c
    4742   00:8115  2C 06 40            		db	#2c,#06,#40	
    4743   00:8118  2C 06 40            		db	#2c,#06,#40	
    4744   00:811B  2C 06 40            		db	#2c,#06,#40	
    4745   00:811E  2E 06 42            		db	#2e,#06,#42	
    4746   00:8121  2E 06 42            		db	#2e,#06,#42	
    4747   00:8124  2E 06 42            		db	#2e,#06,#42	
    4748   00:8127  30 06 44            		db	#30,#06,#44	
    4749   00:812A  30 06 44            		db	#30,#06,#44	
    4750   00:812D  30 06 44            		db	#30,#06,#44	
    4751   00:8130  32 06 46            		db	#32,#06,#46	
    4752   00:8133  32 06 46            		db	#32,#06,#46	
    4753   00:8136  32 06 46            		db	#32,#06,#46	
    4754   00:8139  34 06 48            		db	#34,#06,#48	
    4755   00:813C  34 06 48            		db	#34,#06,#48	
    4756   00:813F  34 06 48            		db	#34,#06,#48	
    4757   00:8142  36 06 49            		db	#36,#06,#49	
    4758   00:8145  36 06 49            		db	#36,#06,#49	
    4759   00:8148  36 06 49            		db	#36,#06,#49	
    4760   00:814B  38 06 4A            		db	#38,#06,#4a	
    4761   00:814E  38 06 4A            		db	#38,#06,#4a	
    4762   00:8151  38 06 4A            		db	#38,#06,#4a	
    4763   00:8154  3A 06 4B            		db	#3a,#06,#4b	
    4764   00:8157  3A 06 4B            		db	#3a,#06,#4b	
    4765   00:815A  3A 06 4B            		db	#3a,#06,#4b	
    4766   00:815D  3D 06 4C            		db	#3d,#06,#4c	
    4767   00:8160  3D 06 4C            		db	#3d,#06,#4c	
    4768   00:8163  3D 06 4C            		db	#3d,#06,#4c	
    4769   00:8166  40 06 4D            		db	#40,#06,#4d	
    4770   00:8169  40 06 4D            		db	#40,#06,#4d	
    4771   00:816C  40 06 4D            		db	#40,#06,#4d	
    4772   00:816F  43 06 4E            		db	#43,#06,#4e	
    4773   00:8172  43 06 4E            		db	#43,#06,#4e	
    4774   00:8175  43 06 4E            		db	#43,#06,#4e	
    4775   00:8178                      
    4776   00:8178                      DATAS_CANYON_MID:
    4777   00:8178                      
    4778   00:8178  42 00 1C            		db	#42,#00,#1c	
    4779   00:817B  42 00 1C            		db	#42,#00,#1c	
    4780   00:817E  42 00 1C            		db	#42,#00,#1c	
    4781   00:8181  42 00 1C            		db	#42,#00,#1c	
    4782   00:8184  42 00 1C            		db	#42,#00,#1c	
    4783   00:8187  42 00 1C            		db	#42,#00,#1c	
    4784   00:818A  42 00 1C            		db	#42,#00,#1c	
    4785   00:818D  42 00 1C            		db	#42,#00,#1c	
    4786   00:8190  42 00 1C            		db	#42,#00,#1c	
    4787   00:8193  42 00 1C            		db	#42,#00,#1c	
    4788   00:8196  32 04 1C            		db	#32,#04,#1c	
    4789   00:8199  32 04 1C            		db	#32,#04,#1c	
    4790   00:819C  32 04 1C            		db	#32,#04,#1c	
    4791   00:819F  30 02 21            		db	#30,#02,#21	
    4792   00:81A2  30 02 21            		db	#30,#02,#21	
    4793   00:81A5  30 02 21            		db	#30,#02,#21	
    4794   00:81A8  2E 02 26            		db	#2e,#02,#26	
    4795   00:81AB  2E 02 26            		db	#2e,#02,#26	
    4796   00:81AE  2E 02 26            		db	#2e,#02,#26	
    4797   00:81B1  2C 02 30            		db	#2c,#02,#30	
    4798   00:81B4  2C 02 30            		db	#2c,#02,#30	
    4799   00:81B7  2C 02 30            		db	#2c,#02,#30	
    4800   00:81BA  2A 02 3A            		db	#2a,#02,#3a	
    4801   00:81BD  2A 02 3A            		db	#2a,#02,#3a	
    4802   00:81C0  2A 02 3A            		db	#2a,#02,#3a	
    4803   00:81C3  28 02 45            		db	#28,#02,#45	
    4804   00:81C6  28 02 45            		db	#28,#02,#45	
    4805   00:81C9  28 02 45            		db	#28,#02,#45	
    4806   00:81CC  28 02 50            		db	#28,#02,#50
    4807   00:81CF  28 02 50            		db	#28,#02,#50
    4808   00:81D2  28 02 50            		db	#28,#02,#50
    4809   00:81D5  28 02 5A            		db	#28,#02,#5a
    4810   00:81D8  28 02 5A            		db	#28,#02,#5a
    4811   00:81DB  28 02 5A            		db	#28,#02,#5a
    4812   00:81DE  28 06 65            		db	#28,#06,#65
    4813   00:81E1  28 06 65            		db	#28,#06,#65
    4814   00:81E4  28 06 65            		db	#28,#06,#65
    4815   00:81E7  2A 06 70            		db	#2a,#06,#70
    4816   00:81EA  2A 06 70            		db	#2a,#06,#70
    4817   00:81ED  2A 06 70            		db	#2a,#06,#70
    4818   00:81F0  2C 06 7A            		db	#2c,#06,#7a	
    4819   00:81F3  2C 06 7A            		db	#2c,#06,#7a	
    4820   00:81F6  2C 06 7A            		db	#2c,#06,#7a	
    4821   00:81F9  2E 06 85            		db	#2e,#06,#85	
    4822   00:81FC  2E 06 85            		db	#2e,#06,#85	
    4823   00:81FF  2E 06 85            		db	#2e,#06,#85	
    4824   00:8202  30 06 90            		db	#30,#06,#90	
    4825   00:8205  30 06 90            		db	#30,#06,#90	
    4826   00:8208  30 06 90            		db	#30,#06,#90	
    4827   00:820B  32 06 95            		db	#32,#06,#95	
    4828   00:820E  32 06 95            		db	#32,#06,#95	
    4829   00:8211  32 06 95            		db	#32,#06,#95	
    4830   00:8214  34 06 9A            		db	#34,#06,#9a	
    4831   00:8217  34 06 9A            		db	#34,#06,#9a	
    4832   00:821A  34 06 9A            		db	#34,#06,#9a	
    4833   00:821D  36 06 A0            		db	#36,#06,#a0	
    4834   00:8220  36 06 A0            		db	#36,#06,#a0	
    4835   00:8223  36 06 A0            		db	#36,#06,#a0	
    4836   00:8226  38 06 A4            		db	#38,#06,#a4	
    4837   00:8229  38 06 A4            		db	#38,#06,#a4	
    4838   00:822C  38 06 A4            		db	#38,#06,#a4	
    4839   00:822F  3A 06 A8            		db	#3a,#06,#a8	
    4840   00:8232  3A 06 A8            		db	#3a,#06,#a8	
    4841   00:8235  3A 06 A8            		db	#3a,#06,#a8	
    4842   00:8238  3D 06 AC            		db	#3d,#06,#ac	
    4843   00:823B  3D 06 AC            		db	#3d,#06,#ac	
    4844   00:823E  3D 06 AC            		db	#3d,#06,#ac	
    4845   00:8241  40 06 B0            		db	#40,#06,#b0	
    4846   00:8244  40 06 B0            		db	#40,#06,#b0	
    4847   00:8247  40 06 B0            		db	#40,#06,#b0	
    4848   00:824A  43 06 B4            		db	#43,#06,#b4	
    4849   00:824D  43 06 B4            		db	#43,#06,#b4	
    4850   00:8250  43 06 B4            		db	#43,#06,#b4	
    4851   00:8253                      		
    4852   00:8253                      DATAS_CANYON_HIG:
    4853   00:8253                      
    4854   00:8253  42 00 1C            		db	#42,#00,#1c	
    4855   00:8256  42 00 1C            		db	#42,#00,#1c	
    4856   00:8259  42 00 1C            		db	#42,#00,#1c	
    4857   00:825C  42 00 1C            		db	#42,#00,#1c	
    4858   00:825F  42 00 1C            		db	#42,#00,#1c	
    4859   00:8262  42 00 1C            		db	#42,#00,#1c	
    4860   00:8265  42 00 1C            		db	#42,#00,#1c	
    4861   00:8268  42 00 1C            		db	#42,#00,#1c	
    4862   00:826B  42 00 1C            		db	#42,#00,#1c	
    4863   00:826E  42 00 1C            		db	#42,#00,#1c	
    4864   00:8271  32 04 1C            		db	#32,#04,#1c	
    4865   00:8274  32 04 1C            		db	#32,#04,#1c	
    4866   00:8277  32 04 1C            		db	#32,#04,#1c	
    4867   00:827A  30 02 21            		db	#30,#02,#21	
    4868   00:827D  30 02 21            		db	#30,#02,#21	
    4869   00:8280  30 02 21            		db	#30,#02,#21	
    4870   00:8283  2E 02 26            		db	#2e,#02,#26	
    4871   00:8286  2E 02 26            		db	#2e,#02,#26	
    4872   00:8289  2E 02 26            		db	#2e,#02,#26	
    4873   00:828C  2C 02 30            		db	#2c,#02,#30	
    4874   00:828F  2C 02 30            		db	#2c,#02,#30	
    4875   00:8292  2C 02 30            		db	#2c,#02,#30	
    4876   00:8295  2A 02 3A            		db	#2a,#02,#3a	
    4877   00:8298  2A 02 3A            		db	#2a,#02,#3a	
    4878   00:829B  2A 02 3A            		db	#2a,#02,#3a	
    4879   00:829E  28 02 45            		db	#28,#02,#45	
    4880   00:82A1  28 02 48            		db	#28,#02,#48	
    4881   00:82A4  28 02 4B            		db	#28,#02,#4b	
    4882   00:82A7  28 02 4E            		db	#28,#02,#4e
    4883   00:82AA  28 02 51            		db	#28,#02,#51
    4884   00:82AD  28 02 54            		db	#28,#02,#54
    4885   00:82B0  28 02 57            		db	#28,#02,#57
    4886   00:82B3  28 02 5A            		db	#28,#02,#5a
    4887   00:82B6  28 02 5D            		db	#28,#02,#5d
    4888   00:82B9  28 06 60            		db	#28,#06,#60
    4889   00:82BC  28 06 63            		db	#28,#06,#63
    4890   00:82BF  28 06 66            		db	#28,#06,#66
    4891   00:82C2  27 06 69            		db	#27,#06,#69
    4892   00:82C5  27 06 6C            		db	#27,#06,#6c
    4893   00:82C8  27 06 6F            		db	#27,#06,#6f
    4894   00:82CB  27 06 72            		db	#27,#06,#72	
    4895   00:82CE  27 06 75            		db	#27,#06,#75	
    4896   00:82D1  27 06 78            		db	#27,#06,#78	
    4897   00:82D4  26 06 7B            		db	#26,#06,#7b	
    4898   00:82D7  26 06 7E            		db	#26,#06,#7e	
    4899   00:82DA  26 06 81            		db	#26,#06,#81	
    4900   00:82DD  26 06 84            		db	#26,#06,#84	
    4901   00:82E0  26 06 87            		db	#26,#06,#87	
    4902   00:82E3  26 06 8A            		db	#26,#06,#8a	
    4903   00:82E6  26 06 8E            		db	#26,#06,#8e	
    4904   00:82E9  26 06 91            		db	#26,#06,#91	
    4905   00:82EC  26 06 94            		db	#26,#06,#94	
    4906   00:82EF  25 06 97            		db	#25,#06,#97	
    4907   00:82F2  25 06 9A            		db	#25,#06,#9a	
    4908   00:82F5  25 06 9D            		db	#25,#06,#9d	
    4909   00:82F8  25 06 A1            		db	#25,#06,#a1	
    4910   00:82FB  25 06 A4            		db	#25,#06,#a4	
    4911   00:82FE  25 06 A7            		db	#25,#06,#a7	
    4912   00:8301  25 06 AA            		db	#25,#06,#aa	
    4913   00:8304  25 06 AD            		db	#25,#06,#ad	
    4914   00:8307  25 06 B0            		db	#25,#06,#b0	
    4915   00:830A  25 06 B3            		db	#25,#06,#b3	
    4916   00:830D  25 06 B6            		db	#25,#06,#b6	
    4917   00:8310  25 06 B9            		db	#25,#06,#b9	
    4918   00:8313  25 06 C0            		db	#25,#06,#c0	
    4919   00:8316  25 06 C8            		db	#25,#06,#c8	
    4920   00:8319  25 06 D0            		db	#25,#06,#d0	
    4921   00:831C  25 06 DA            		db	#25,#06,#da	
    4922   00:831F  25 06 DB            		db	#25,#06,#db
    4923   00:8322  25 06 DC            		db	#25,#06,#dc	
    4924   00:8325  25 06 DD            		db	#25,#06,#dd	
    4925   00:8328  25 06 DE            		db	#25,#06,#de	
    4926   00:832B  25 06 DF            		db	#25,#06,#df
    4927   00:832E                      
    4928   00:832E  00 (15570)          				ds		#C000-$													;llenamos de 0 hasta el final del bloque
    4929   00:C000                      
    4930   00:C000                      ; ********** FIN PAGINA 021 DEL MEGAROM **********)))			
    4931   00:C000                      ; --------------------------------------------------

    LABELS
-------------------------------------------------
00:00000138   RSLREG
00:00000024   ENASLT
00:0000E00A X FINAL_MEMORIA
00:0000F3DB   CLIKSW
00:00000056   FILVRM
00:0000005C   LDIRVM
00:0000005F   CHGMOD
00:00000020   DCOMPR
00:000000D5   GTSTCK
00:000000D8   GTTRIG
00:0000FD9A X H.KEYI
00:00000141   SNSMAT
00:00000180 X CHGCPU
00:0000C000   SLOTVAR
00:0000C001   PAGINA_A_LA_QUE_VOLVER
00:0000C002   posicion_scroll_x_A
00:0000C004   posicion_scroll_y_A
00:0000C006   pos_scroll_x_A_objet
00:0000C008   pos_scroll_y_A_objet
00:0000C00A   posicion_scroll_y_B
00:0000C00C   PANTALLA_ACTUAL
00:0000C00E   TILE_SUP_IZQ_PANTALLA
00:0000C010   TILE_SUP_IZQ_HYPERTILE
00:0000C012   BYTE_VRAM_EMPIEZA_E
00:0000C014   BYTE_VRAM_EMPIEZA_HL
00:0000C016   POSICION_ACTUAL_SCROLL
00:0000C017   DIRECCION_DONDE_VAMOS
00:0000C018   SPACE_PULSADO
00:0000C019   PROCESO_DE_SALTO
00:0000C01A   ATENCION_AL_SALTO
00:0000C01B   POSE_PROTA
00:0000C01C   OBJETO_TOCANDO_1
00:0000C01D   OBJETO_TOCANDO_2
00:0000C01E   PERSONAJE
00:0000C01F   DETRAS_DE_POZO
00:0000C020   SUMA_ALTURA_CAIDA
00:0000C021   PANTALLA_ACTUAL_SAVE
00:0000C022   X_SAVE
00:0000C023   Y_SAVE
00:0000C024   MEMORIZAMOS_POSICION
00:0000C025   CONTADOR_DE_MUERTE
00:0000C026   VIDAS
00:0000C027   SALTO_COLCHONETA
00:0000C028   QUIERE_CUERDA
00:0000C029   CUERDA_PINTANDO
00:0000C02B   ANIM_CAN
00:0000C02C   POLVORA_DECIDIDA
00:0000C02D   MUERTE
00:0000C02E   QUE_SOY
00:0000C02F   POSICION_BOLSILLO
00:0000C030   PAUSA_ENTRE_BOTONES
00:0000C031 X BOLSILLO_CHANGE
00:0000C032 X LLEVANDO_CHANGE
00:0000C033   ATRIBUTOS_SPRITES
00:0000C093   ATRIBUTOS_USANDO
00:0000C0A3   ATRIBUTOS_BOLSI_A
00:0000C0B3   ATRIBUTOS_BOLSI_B
00:0000C0C3   ATRIBUTOS_BOLSI_C
00:0000C0D3   HYPERTILE_POSIC_1
00:0000C0D4   MONOCICLO
00:0000C0D5   FLASH
00:0000C0D6   PELOTA
00:0000C0D7   ESPUELA
00:0000C0D8   BARRIL
00:0000C0D9   PARAGUAS
00:0000C0DA   MANIFIESTO
00:0000C0DB   SOPLADOR
00:0000C0DC   CANON
00:0000C0DD   ASPIRADORA
00:0000C0DE   PUENTE_EXP
00:0000C0DF   FLAUTA
00:0000C0E0   BARRA_PLATA
00:0000C0E1   PROPULSOR
00:0000C0E2   FORMULA
00:0000C0E3   MANIBELA
00:0000C0E4   BOTON
00:0000C0E5   BATERIA
00:0000C0E6   PERCHA
00:0000C0E7   TRAMPOLIN
00:0000C0E8   PILA_ATOMICA
00:0000C0E9   ANTI_RADIA
00:0000C0EA   TAZA_TE
00:0000C0EB   CRISTAL_ENER
00:0000C0EC X GLOBO_A
00:0000C0ED X GLOBO_B
00:0000C0EE   POLVORA_PEQUE
00:0000C0EF   POLVORA_MEDIA
00:0000C0F0   POLVORA_GRAND
00:0000C0F1 X CRUZ_PLATA
00:0000C0F2   CESTO
00:0000C0F3 X RESIDUO
00:0000C0F4   TYLE_POSIC_1
00:0000C0F6   TYLE_POSIC_2
00:0000C0F8   TYLE_POSIC_3
00:0000C0FA   TYLE_POSIC_4
00:0000C0FC   TYLE_POSIC_5
00:0000C0FE   TYLE_POSIC_6
00:0000C100 X TYLE_POSIC_7
00:0000C102 X TYLE_POSIC_8
00:0000C104   TYLE_POSIC_9
00:0000C106   TYLE_POSIC_10
00:0000C108   TYLE_POSIC_11
00:0000C10A   TYLE_POSIC_12
00:0000C10C   TYLE_POSIC_13
00:0000C10E   TYLE_POSIC_14
00:0000C110   TYLE_POSIC_15
00:0000C112   TYLE_POSIC_16
00:0000C114   TYLE_POSIC_17
00:0000C116   TYLE_POSIC_18
00:0000C118   TYLE_POSIC_19
00:0000C11A   var_cir_1
00:0000C11C   var_cir_2
00:0000C11E   var_cir_3
00:0000C120   var_cir_4
00:0000C122   var_cir_5
00:0000C124   var_cir_6
00:0000C126   var_cir_7
00:00000000   G9K_MODE_P1
00:00000001 X G9K_MODE_P2
00:00000002 X G9K_MODE_B1
00:00000003 X G9K_MODE_B2
00:00000004 X G9K_MODE_B3
00:00000005 X G9K_MODE_B4
00:00000006 X G9K_MODE_B5
00:00000007 X G9K_MODE_B6
00:00000008 X G9K_MODE_B7
00:000000C0 X G9K_SCR0_STANDBY
00:00000080   G9K_SCR0_BITMAP
00:00000040   G9K_SCR0_P2
00:00000000   G9K_SCR0_P1
00:00000020   G9K_SCR0_DTCLK
00:00000010   G9K_SCR0_DTCLK2
00:00000000   G9K_SCR0_DTCLK4
00:0000000C X G9K_SCR0_XIM2048
00:00000008 X G9K_SCR0_XIM1024
00:00000004 X G9K_SCR0_XIM512
00:00000000   G9K_SCR0_XIM256
00:00000003 X G9K_SCR0_16BIT
00:00000002 X G9K_SCR0_8BIT
00:00000001   G9K_SCR0_4BIT
00:00000000 X G9K_SCR0_2BIT
00:00000000   G9K_WRITE_ADDR
00:00000003   G9K_READ_ADDR
00:00000006   G9K_SCREEN_MODE0
00:00000007 X G9K_SCREEN_MODE1
00:00000008   G9K_CTRL
00:00000009 X G9K_INT_ENABLE
00:0000000A X G9K_INT_V_LINE_LO
00:0000000B X G9K_INT_V_LINE_HI
00:0000000C X G9K_INT_H_LINE
00:0000000D   G9K_PALETTE_CTRL
00:0000000E   G9K_PALETTE_PTR
00:0000000F   G9K_BACK_DROP_COLOR
00:00000010   G9K_DISPLAY_ADJUST
00:00000011   G9K_SCROLL_LOW_Y
00:00000012   G9K_SCROLL_HIGH_Y
00:00000013   G9K_SCROLL_LOW_X
00:00000014   G9K_SCROLL_HIGH_X
00:00000015 X G9K_SCROLL_LOW_Y_B
00:00000016 X G9K_SCROLL_HIGH_Y_B
00:00000017 X G9K_SCROLL_LOW_X_B
00:00000018 X G9K_SCROLL_HIGH_X_B
00:00000019 X G9K_PAT_GEN_TABLE
00:0000001A X G9K_LCD_CTRL
00:0000001B   G9K_PRIORITY_CTRL
00:0000001C X G9K_SPR_PAL_CTRL
00:00000020 X G9K_SC_X
00:00000022 X G9K_SC_Y
00:00000024 X G9K_DS_X
00:00000026 X G9K_DS_Y
00:00000028 X G9K_NX
00:0000002A X G9K_NY
00:0000002C   G9K_ARG
00:0000002D   G9K_LOP
00:0000002E   G9K_WRITE_MASK
00:00000030 X G9K_FC
00:00000032 X G9K_BC
00:00000034   G9K_OPCODE
00:00000010 X G9K_LOP_TP
00:0000000C   G9K_LOP_WCSC
00:00000003 X G9K_LOP_WCNOTSC
00:00000008 X G9K_LOP_WCANDSC
00:0000000E X G9K_LOP_WCORSC
00:00000006 X G9K_LOP_WCEORSC
00:00000060   G9K_VRAM
00:00000061   G9K_PALETTE
00:00000062 X G9K_CMD_DATA
00:00000063   G9K_REG_DATA
00:00000064   G9K_REG_SELECT
00:00000065   G9K_STATUS
00:00000066 X G9K_INT_FLAG
00:00000067   G9K_SYS_CTRL
00:0000006F   G9K_OUTPUT_CTRL
00:00000080 X G9K_STATUS_TR
00:00000040   G9K_STATUS_VR
00:00000020 X G9K_STATUS_HR
00:00000010 X G9K_STATUS_BD
00:00000004 X G9K_STATUS_MSC
00:00000002 X G9K_STATUS_EO
00:00000001 X G9K_STATUS_CE
00:00000000   G9K_OPCODE_STOP
00:00000010 X G9K_OPCODE_LMMC
00:00000020 X G9K_OPCODE_LMMV
00:00000030 X G9K_OPCODE_LMCM
00:00000040 X G9K_OPCODE_LMMM
00:00000050 X G9K_OPCODE_CMMC
00:00000060 X G9K_OPCODE_CMMK
00:00000070 X G9K_OPCODE_CMMM
00:00000080 X G9K_OPCODE_BMXL
00:00000090 X G9K_OPCODE_BMLX
00:000000A0 X G9K_OPCODE_BMLL
00:000000B0 X G9K_OPCODE_LINE
00:000000C0 X G9K_OPCODE_SRCH
00:000000D0 X G9K_OPCODE_POINT
00:000000E0 X G9K_OPCODE_PSET
00:000000F0 X G9K_OPCODE_ADVN
00:00000080   G9K_CTRL_DISP
00:00000040   G9K_CTRL_DIS_SPD
00:00000020 X G9K_CTRL_YSE
00:00000010 X G9K_CTRL_VWTE
00:00000008 X G9K_CTRL_VWM
00:00000004 X G9K_CTRL_DMAE
00:00000002   G9K_CTRL_VRAM512
00:00000001 X G9K_CTRL_VRAM256
00:00000000 X G9K_CTRL_VRAM128
00:00000040   G9K_DIS_INC_READ
00:00000080 X G9K_DIS_INC_WRITE
00:00000002   G9K_SYS_CTRL_SRS
00:00000001   G9K_SYS_CTRL_MCKIN
00:00000000   G9K_SYS_CTRL_XTAL
00:00000040   G9K_SCR1_C25M
00:00000020 X G9K_SCR1_SM1
00:00000010 X G9K_SCR1_SM
00:00000008 X G9K_SCR1_PAL
00:00000004   G9K_SCR1_EO
00:00000002   G9K_SCR1_IL
00:00000001   G9K_SCR1_HSCN
00:0000E008   vram_first_pattern_name
00:00000005 X g9b_object_bitdepth
00:00000006 X g9b_object_colortype
00:00000007 X g9b_object_nrcolors
00:00000008 X g9b_object_width
00:0000000A X g9b_object_height
00:0000000C X g9b_object_compression
00:0000000D X g9b_object_datasize
00:00000010 X g9b_object_palete_pointer
00:0000E001 X puntero_g9b
00:0000E003 X block_size
00:0000E005 X blocks
00:0000E006 X source_length
00:00004010   INICIO
00:0000401E X AMPLIA_RAM
00:00004027   BUSCA_SLOT
00:00004048   PREPARA_BANCOS
00:00004051 X LIMPIA_MEMORIA
00:0000405E X PREPARA_PANTALLA_MSX
00:00004072 X DETECTAMOS_GFX9000
00:000040B2   LIMPIAMOS_PATRONES_DE_A
00:000040BE   LIMPIAMOS_PATRONES_DE_A.bucle_limpieza_1
00:000040C1   LIMPIAMOS_PATRONES_DE_A.bucle_limpieza_2
00:000040D0 X PRESENTACION
00:000040D0 X MENU
00:000040D0 X CARGAMOS_TILES_DE_A
00:000040E6 X CARGAMOS_COLOR_TILES_A
00:00004108 X CARGAMOS_TILES_DE_B
00:00004121 X CARGAMOS_COLOR_TILES_B
00:0000412B X CARGAMOS_COLOR_SPRITES_PROTA
00:00004138 X CARGAMOS_COLOR_SPRITES_PROTA.CARGAMOS_SPRITES
00:00004151 X VARIABLES_INICIO_PARTIDA
00:0000419E   VARIABLES_INICIO_PARTIDA.bucle_atributos_sprites_iniciales
00:000041AF   PINTA_LA_PANTALLA_DE_INICIO
00:000041EC   PINTA_LA_PANTALLA_DE_INICIO.PINTA_LA_PANTALLA_DE_INICIO_1
00:000041F4 X COLOCAMOS_AL_PROTA_SI_VENIMOS_DE_OTRA_PANTALLA
00:0000420E   COLOCAMOS_AL_PROTA_SI_VENIMOS_DE_OTRA_PANTALLA.poner_a_la_izquierda
00:0000421A   COLOCAMOS_AL_PROTA_SI_VENIMOS_DE_OTRA_PANTALLA.poner_a_la_derecha
00:00004226   COLOCAMOS_AL_PROTA_SI_VENIMOS_DE_OTRA_PANTALLA.poner_arriba
00:00004248   COLOCAMOS_AL_PROTA_SI_VENIMOS_DE_OTRA_PANTALLA.poner_abajo
00:00004259   COLOCAMOS_AL_PROTA_SI_VENIMOS_DE_OTRA_PANTALLA.poner_abajo_1
00:0000425B   COLOCAMOS_AL_PROTA_SI_VENIMOS_DE_OTRA_PANTALLA.poner_abajo_2
00:0000425E   COLOCAMOS_AL_PROTA_SI_VENIMOS_DE_OTRA_PANTALLA.muestra_sprites
00:0000426F X COLOCAMOS_AL_PROTA_SI_VENIMOS_DE_OTRA_PANTALLA.muestra_vidas
00:0000428B X COLOCAMOS_AL_PROTA_SI_VENIMOS_DE_OTRA_PANTALLA.vidas_0
00:00004292   COLOCAMOS_AL_PROTA_SI_VENIMOS_DE_OTRA_PANTALLA.vidas_1
00:00004299   COLOCAMOS_AL_PROTA_SI_VENIMOS_DE_OTRA_PANTALLA.vidas_2
00:000042A0   COLOCAMOS_AL_PROTA_SI_VENIMOS_DE_OTRA_PANTALLA.vidas_3
00:000042A4   COLOCAMOS_AL_PROTA_SI_VENIMOS_DE_OTRA_PANTALLA.bucle_vidas
00:000042B6   BUCLE_CENTRAL
00:000042E3   BUCLE_CENTRAL.bucle_central_1
00:000042EF   BUCLE_CENTRAL.bucle_central_2
00:00004304   ALGO_ME_MATA
00:0000430A   ALGO_ME_MATA.bucle_1
00:00004328   ALGO_ME_MATA.bucle_2
00:00004330   A_VER_SI_MUERE
00:0000434B   A_VER_SI_MUERE.tipo_de_muerte
00:0000435F X A_VER_SI_MUERE.caida
00:0000437B   A_VER_SI_MUERE.explosion
00:00004387   A_VER_SI_MUERE.explosion_2
00:000043A8   A_VER_SI_MUERE.fotograma_1
00:000043AC   A_VER_SI_MUERE.fotograma_2
00:000043B1   A_VER_SI_MUERE.fotograma_3
00:000043B6   A_VER_SI_MUERE.fotograma_4
00:000043BB   A_VER_SI_MUERE.fotograma_5
00:000043C5   A_VER_SI_MUERE.radiacion
00:000043C6   A_VER_SI_MUERE.canon_pared
00:000043E2   TECLAS
00:000043EE   TECLAS.miramos
00:00004408   TECLAS.crea_la_pausa
00:0000440E   TECLAS.rota_a_izquierda_1
00:00004418   TECLAS.rota_a_derecha_2
00:0000441F   TECLAS.comun_rota
00:00004427   TECLAS.intercambia
00:0000442F   TECLAS.bucle_busca_usando
00:0000443F   TECLAS.da_atributos_cogiendo
00:00004440 X TECLAS.busca_posicion_cercana_de_bolsillo
00:00004448   TECLAS.bucle_busca_bolsillo_cercano
00:0000445D   TECLAS.soluciona_el_bolsillo
00:00004470 X TECLAS.guarda_datos_futuro_USANDO
00:0000447B   TECLAS.guarda_datos_futuro_A
00:00004489   TECLAS.pintando_las_cosas
00:00004490   VAMOS_A_SABER_QUE_SOY
00:00004496 X VAMOS_A_SABER_QUE_SOY.EXPLOTAO
00:000044B4   VAMOS_A_SABER_QUE_SOY.GLOBO
00:000044BA X VAMOS_A_SABER_QUE_SOY.ASPIRADORA
00:000044F8   VAMOS_A_SABER_QUE_SOY.FLAUTA
00:00004500 X VAMOS_A_SABER_QUE_SOY.SI_FLAUTA
00:00004517   VAMOS_A_SABER_QUE_SOY.pintado_general
00:0000452C   VAMOS_A_SABER_QUE_SOY.PARAGUAS
00:00004578   EVENTO_ESPECIAL_SEGUN_PANTALLA
00:0000458D   EVENTO_ESPECIAL_SEGUN_PANTALLA.PANTALLA00
00:00004592   EVENTO_ESPECIAL_SEGUN_PANTALLA.PANTALLA01
00:00004592   EVENTO_ESPECIAL_SEGUN_PANTALLA.PANTALLA02
00:00004592   EVENTO_ESPECIAL_SEGUN_PANTALLA.PANTALLA03
00:00004595   EVENTO_ESPECIAL_SEGUN_PANTALLA.PANTALLA04
00:0000459A   EVENTO_ESPECIAL_SEGUN_PANTALLA.PANTALLA05
00:0000459A   EVENTO_ESPECIAL_SEGUN_PANTALLA.PANTALLA06
00:0000459B   EVENTO_ESPECIAL_SEGUN_PANTALLA.PANTALLA07
00:000045A0   EVENTO_ESPECIAL_SEGUN_PANTALLA.PANTALLA08
00:000045A3 X EVENTO_ESPECIAL_SEGUN_PANTALLA.PANTALLA08_2
00:000045A8   EVENTO_ESPECIAL_SEGUN_PANTALLA.PANTALLA09
00:000045AD   EVENTO_ESPECIAL_SEGUN_PANTALLA.PANTALLA10
00:000045B2   EVENTO_ESPECIAL_SEGUN_PANTALLA.PANTALLA11
00:000045B6   EVENTO_ESPECIAL_SEGUN_PANTALLA.PANTALLA12
00:000045E7   EVENTO_ESPECIAL_SEGUN_PANTALLA.PANTALLA12_2
00:0000460F   EVENTO_ESPECIAL_SEGUN_PANTALLA.PANTALLA12_3
00:0000461E   EVENTO_ESPECIAL_SEGUN_PANTALLA.PANTALLA12_4
00:00004623   EVENTO_ESPECIAL_SEGUN_PANTALLA.PANTALLA13
00:00004623   EVENTO_ESPECIAL_SEGUN_PANTALLA.PANTALLA14
00:00004623   EVENTO_ESPECIAL_SEGUN_PANTALLA.PANTALLA15
00:0000465A   EVENTO_ESPECIAL_SEGUN_PANTALLA.PANTALLA15_0
00:00004679   EVENTO_ESPECIAL_SEGUN_PANTALLA.PANTALLA15_2
00:00004687   EVENTO_ESPECIAL_SEGUN_PANTALLA.PANTALLA15_3
00:000046AA   EVENTO_ESPECIAL_SEGUN_PANTALLA.PANTALLA15_4
00:000046C0   EVENTO_ESPECIAL_SEGUN_PANTALLA.PANTALLA16
00:000046DA   EVENTO_ESPECIAL_SEGUN_PANTALLA.PANTALLA16_2
00:000046F1   EVENTO_ESPECIAL_SEGUN_PANTALLA.PANTALLA16_3
00:00004716   EVENTO_ESPECIAL_SEGUN_PANTALLA.PANTALLA16_4
00:00004720   EVENTO_ESPECIAL_SEGUN_PANTALLA.PANTALLA16_5
00:00004746   EVENTO_ESPECIAL_SEGUN_PANTALLA.PANTALLA16_6
00:00004763   EVENTO_ESPECIAL_SEGUN_PANTALLA.PANTALLA16_7
00:0000478D   EVENTO_ESPECIAL_SEGUN_PANTALLA.PANTALLA17
00:0000478D   EVENTO_ESPECIAL_SEGUN_PANTALLA.PANTALLA18
00:0000478D   EVENTO_ESPECIAL_SEGUN_PANTALLA.PANTALLA19
00:0000478E   EVENTO_ESPECIAL_SEGUN_PANTALLA.PANTALLA20
00:00004794   EVENTO_ESPECIAL_SEGUN_PANTALLA.COMUN_8_Y_20
00:0000479C X EVENTO_ESPECIAL_SEGUN_PANTALLA.SI_VUELA
00:000047B3   EVENTO_ESPECIAL_SEGUN_PANTALLA.NO_VUELA
00:000047CB   EVENTO_ESPECIAL_SEGUN_PANTALLA.PANTALLA20_2
00:000047D0   EVENTO_ESPECIAL_SEGUN_PANTALLA.PANTALLA21
00:000047D1   EVENTO_ESPECIAL_SEGUN_PANTALLA.PANTALLA22
00:000047D6   EVENTO_ESPECIAL_SEGUN_PANTALLA.PANTALLA23
00:000047D6   EVENTO_ESPECIAL_SEGUN_PANTALLA.PANTALLA24
00:000047D7   EVENTO_ESPECIAL_SEGUN_PANTALLA.PANTALLA25
00:00004817   EVENTO_ESPECIAL_SEGUN_PANTALLA.PANTALLA26
00:00004817   EVENTO_ESPECIAL_SEGUN_PANTALLA.PANTALLA27
00:00004818   EVENTO_ESPECIAL_SEGUN_PANTALLA.PANTALLA28
00:00004835   EVENTO_ESPECIAL_SEGUN_PANTALLA.PANTALLA28_1
00:00004851   EVENTO_ESPECIAL_SEGUN_PANTALLA.PANTALLA29
00:00004877   EVENTO_ESPECIAL_SEGUN_PANTALLA.PANTALLA29_1
00:0000488C   EVENTO_ESPECIAL_SEGUN_PANTALLA.preparamos_animacion_canyon
00:000048B2   EVENTO_ESPECIAL_SEGUN_PANTALLA.PANTALLA29_2
00:000048C8   EVENTO_ESPECIAL_SEGUN_PANTALLA.PANTALLA30
00:000048C8   EVENTO_ESPECIAL_SEGUN_PANTALLA.PANTALLA31
00:000048C8   EVENTO_ESPECIAL_SEGUN_PANTALLA.PANTALLA32
00:000048C9   EVENTO_ESPECIAL_SEGUN_PANTALLA.PANTALLA33
00:000048CE   EVENTO_ESPECIAL_SEGUN_PANTALLA.PANTALLA34
00:000048D3   EVENTO_ESPECIAL_SEGUN_PANTALLA.PANTALLA35
00:000048D3   EVENTO_ESPECIAL_SEGUN_PANTALLA.PANTALLA36
00:000048D3   EVENTO_ESPECIAL_SEGUN_PANTALLA.PANTALLA37
00:000048D3   EVENTO_ESPECIAL_SEGUN_PANTALLA.PANTALLA38
00:000048D4   EVENTO_ESPECIAL_SEGUN_PANTALLA.PANTALLA39
00:000048D9   EVENTO_ESPECIAL_SEGUN_PANTALLA.PANTALLA40
00:000048DE   EVENTO_ESPECIAL_SEGUN_PANTALLA.PANTALLA41
00:000048DF   EVENTO_ESPECIAL_SEGUN_PANTALLA.PANTALLA42
00:000048E4   EVENTO_ESPECIAL_SEGUN_PANTALLA.PANTALLA43
00:000048E5   EVENTO_ESPECIAL_SEGUN_PANTALLA.PANTALLA44
00:000048EA   EVENTO_ESPECIAL_SEGUN_PANTALLA.PANTALLA45
00:000048EA   EVENTO_ESPECIAL_SEGUN_PANTALLA.PANTALLA46
00:000048EA   EVENTO_ESPECIAL_SEGUN_PANTALLA.PANTALLA47
00:000048EA   EVENTO_ESPECIAL_SEGUN_PANTALLA.PANTALLA48
00:000048EB   EVENTO_ESPECIAL_SEGUN_PANTALLA.PANTALLA49
00:000048F0   EVENTO_ESPECIAL_SEGUN_PANTALLA.PANTALLA50
00:000048F0   EVENTO_ESPECIAL_SEGUN_PANTALLA.PANTALLA51
00:000048F1   EVENTO_ESPECIAL_SEGUN_PANTALLA.PANTALLA52
00:000048F6   EVENTO_ESPECIAL_SEGUN_PANTALLA.PANTALLA53
00:000048F6   EVENTO_ESPECIAL_SEGUN_PANTALLA.PANTALLA54
00:000048F6   EVENTO_ESPECIAL_SEGUN_PANTALLA.PANTALLA55
00:000048F6   EVENTO_ESPECIAL_SEGUN_PANTALLA.PANTALLA56
00:000048F6   EVENTO_ESPECIAL_SEGUN_PANTALLA.PANTALLA57
00:000048F6   EVENTO_ESPECIAL_SEGUN_PANTALLA.PANTALLA58
00:000048F6   EVENTO_ESPECIAL_SEGUN_PANTALLA.PANTALLA59
00:000048F7   EVENTO_ESPECIAL_SEGUN_PANTALLA.PANTALLA60
00:000048FC   EVENTO_ESPECIAL_SEGUN_PANTALLA.PANTALLA61
00:000048FC   EVENTO_ESPECIAL_SEGUN_PANTALLA.PANTALLA62
00:000048FC   EVENTO_ESPECIAL_SEGUN_PANTALLA.PANTALLA63
00:000048FC   EVENTO_ESPECIAL_SEGUN_PANTALLA.PANTALLA64
00:000048FC   EVENTO_ESPECIAL_SEGUN_PANTALLA.PANTALLA65
00:000048FD   EVENTO_ESPECIAL_SEGUN_PANTALLA.PANTALLA66
00:00004902   EVENTO_ESPECIAL_SEGUN_PANTALLA.PANTALLA67
00:00004902   EVENTO_ESPECIAL_SEGUN_PANTALLA.PANTALLA68
00:00004903   EVENTO_ESPECIAL_SEGUN_PANTALLA.PANTALLA69
00:00004908   SI_NO_TOCA_OBJETO_1_REGRESA
00:00004923   PUNTOS
00:00004924   COLOCA_OBJETO_EN_MARCADOR
00:00004933   ENTREGA_UN_OBJETO
00:0000494C   BORRA_OBJETO_1_DE_PANTALLA
00:00004953   BORRA_OBJETO_2_DE_PANTALLA
00:00004957   COMUN_BORRA_OBJETO
00:00004966   COGE_UN_OBJETO_1
00:00004977   COGE_UN_OBJETO_2
00:00004988   COMUN_COGE_UN_OBJETO
00:000049C5   REGRESA_SIN_EFECTO
00:000049C7   MIRA_GRAVEDAD
00:000049DB X MIRA_GRAVEDAD.mira_si_sube
00:000049FD   MIRA_GRAVEDAD.mira_si_baja
00:00004A18   MIRA_GRAVEDAD.reinicia_caida_o_muere
00:00004A4D   MIRA_GRAVEDAD.reinicia_caida_o_muere_2
00:00004A57   MIRA_GRAVEDAD.fall
00:00004A76   MIRA_GRAVEDAD.fall_cont
00:00004AB3   MIRA_GRAVEDAD.no_morira
00:00004ABB   MIRA_GRAVEDAD.fall_final
00:00004ABF   CONTROLA_SI_SALE_DE_PANTALLA
00:00004AD3   CONTROLA_SI_SALE_DE_PANTALLA.a_a
00:00004ADA X CONTROLA_SI_SALE_DE_PANTALLA.abajo
00:00004AEA   CONTROLA_SI_SALE_DE_PANTALLA.abajo_2
00:00004B01   CONTROLA_SI_SALE_DE_PANTALLA.arriba_globo
00:00004B0D   CONTROLA_SI_SALE_DE_PANTALLA.arriba
00:00004B1E   CONTROLA_SI_SALE_DE_PANTALLA.d_i
00:00004B25 X CONTROLA_SI_SALE_DE_PANTALLA.derecha
00:00004B59   CONTROLA_SI_SALE_DE_PANTALLA.right_special
00:00004B62   CONTROLA_SI_SALE_DE_PANTALLA.izquierda
00:00004B94   CONTROLA_SI_SALE_DE_PANTALLA.left_special
00:00004B9D   CONTROLA_SI_SALE_DE_PANTALLA.d_i_a_a_aspiradora
00:00004BAD   CONTROLA_SI_SALE_DE_PANTALLA.a_a_aspiradora
00:00004BB0 X CONTROLA_SI_SALE_DE_PANTALLA.abajo_aspiradora
00:00004BC2   CONTROLA_SI_SALE_DE_PANTALLA.arriba_aspiradora
00:00004BD8   CONTROLA_SI_SALE_DE_PANTALLA.comun_arr_aba_aspir
00:00004BDB   CONTROLA_SI_SALE_DE_PANTALLA.d_i_aspiradora
00:00004BE2 X CONTROLA_SI_SALE_DE_PANTALLA.derecha_aspiradora
00:00004BEC   CONTROLA_SI_SALE_DE_PANTALLA.izquierda_aspiradora
00:00004BF1   CONTROLA_SI_SALE_DE_PANTALLA.comun_der_izq_aspir
00:00004BF4   STICK
00:00004C1A   STICK.stick_continua
00:00004C41   STICK.stick_continua_2
00:00004C49   STICK.stick_real
00:00004C69   STICK.stick_real_0_5
00:00004C71   STICK.stick_real_1
00:00004C7A   STICK.stick_real_2
00:00004C9D   STICK.jump_on_place
00:00004CD1 X STICK.be_ware_left
00:00004CE1   STICK.see_left_up
00:00004CED   STICK.borra_desplazamiento
00:00004CF5   STICK.see_left
00:00004D04   STICK.see_left_down
00:00004D1F   STICK.be_ware_right
00:00004D2F   STICK.see_right_up
00:00004D3E   STICK.see_right
00:00004D4D   STICK.see_right_down
00:00004D68   STICK.control_fall
00:00004D88   STICK.stoping_the_jump
00:00004D92   STICK.doing_the_jump
00:00004DA6   STICK.paso_1
00:00004DAD   STICK.paso_2
00:00004DB4   STICK.paso_3
00:00004DBB   STICK.paso_4
00:00004DC2   STICK.paso_5
00:00004DC9   STICK.paso_6
00:00004DD0   STICK.paso_7
00:00004DD7   STICK.paso_8
00:00004DDE   STICK.paso_9
00:00004DE5   STICK.rutina_salto
00:00004E25 X STICK.disminuye_la_y
00:00004E2F   STICK.aumenta_la_y
00:00004E36   STICK.comun_aum_dism
00:00004E4D   STICK.comun_salto
00:00004E5D   STICK.salto_derecha
00:00004E65   STICK.salto_izquierda
00:00004E6A   STICK.comun_ambos_saltos
00:00004E70 X STICK.prev_solo_salto
00:00004E74   STICK.solo_salto
00:00004E7C   STICK.right
00:00004EBE X STICK.extra_globo_right
00:00004ED6   STICK.right_aspiradora
00:00004EFE   STICK.left
00:00004F40   STICK.extra_globo_left
00:00004F58   STICK.left_aspiradora
00:00004F80   STICK.right_left_comun_1
00:00004F8E   STICK.right_left_comun_2
00:00004F98   STICK.right_left_comun_3
00:00004FA2   STICK.right_left_comun_4
00:00004FAC   STICK.right_left_comun_5
00:00004FB2   STICK.right_left_comun_6
00:00004FB6   STICK.up_down_comun_1
00:00004FC0   STICK.suma_pose
00:00004FC6 X STICK.resta
00:00004FCA   STICK.suma
00:00004FCE   STICK.up
00:00004FDE   STICK.up_test_1
00:00005008   STICK.up_test_2
00:00005032   STICK.seeling
00:0000504A X STICK.real_up
00:0000506E   STICK.down
00:00005096   STICK.down_test_1
00:000050C0   STICK.real_down
00:000050E4   STICK.not_up_down
00:000050F6   COMUN_X_CUATRO_SPRITES
00:00005106   COMUN_Y_CUATRO_SPRITES
00:00005116   COMUN_PATRON_CUATRO_SPRITES
00:00005127   COMUN_ATRIBUTOS_CUATRO_SPRITES
00:0000512D   COMUN_ATRIBUTOS_CUATRO_SPRITES.solo_dos
00:00005134   PINTA_SPRITES
00:00005140 X PINTA_SPRITES.salvamos_xy_por_si_la_cambiamos
00:00005148 X PINTA_SPRITES.si_esta_en_globo_cambiamos_x
00:00005155   PINTA_SPRITES.control_de_globo
00:00005171   PINTA_SPRITES.seguimos_segun_lo_planeado
00:00005177   PINTA_SPRITES.bucle_prota
00:00005189   PINTA_SPRITES.bucle_prota_1
00:000051A9 X PINTA_SPRITES.detras_de_a
00:000051B4   PINTA_SPRITES.detras_de_b
00:000051BC   PINTA_SPRITES.salvamos_bytes
00:000051D2 X PINTA_SPRITES.objeto
00:000051E5   PINTA_SPRITES.bucle_objeto
00:000051F6   CARGA_ZONA_SPRITES
00:0000520E   CARGA_ZONA_SPRITES.bucle_exterior
00:00005213   CARGA_ZONA_SPRITES.bucle_interior
00:0000523C   TABLA_PEGA_1_POSE_2_DIREC
00:00005241   TABLA_PEGA_1_POSE_1_DIREC
00:00005246   TABLA_PEGA_4_POSE_2_DIREC
00:0000524B   TABLA_PEGA_4_POSE_1_DIREC
00:00005250   RUTINA_RETRASO
00:0000525F   DATOS_PASO_1_SALTO
00:0000526A   DATOS_PASO_2_SALTO
00:00005275   DATOS_PASO_3_SALTO
00:00005280   DATOS_PASO_4_SALTO
00:0000528B   DATOS_PASO_5_SALTO
00:00005296   DATOS_PASO_6_SALTO
00:000052A1   DATOS_PASO_7_SALTO
00:000052AC   DATOS_PASO_8_SALTO
00:000052B7   DATOS_PASO_9_SALTO
00:000052C2   RELACION_POSICION_DEL_SALTO
00:000052E2   VALORES_INICIALES_ATRIBUTOS_SPRITES
00:000052F2   DATA_COLOR_EXPLO
00:00005322   DATA_COLOR_TILES
00:00005352   DATA_COLOR_MARCADOR
00:00005382   CAMBIA_PAGINA_2
00:00005389   GFX9990_NO_DETECTADA
00:00005397   GFX9990_DETECTADA
00:000053A3   TEXTO_NO_HAY_GFX9000
00:000053C2   TEXTO_SI_HAY_GFX9000
00:000053E1   G9kDetecta
00:000053F8   G9kSetVramWrite
00:00005409   G9kSetVramRead
00:00005416   G9kReset
00:00005448   G9kSetScreenMode
00:00005472   G9kSetCmdWriteMask
00:0000547D   setup_graphic_mode_and_blitter
00:0000549F   G9K_MODE_TABLE
00:000054BA   G9kSpritesEnable
00:000054C5   clean_pattern_model_table
00:000054D3   clean_pattern_model_table.loop_1
00:000054E9   clean_pattern_model_table.loop_2
00:000054F2   clean_3_times
00:000054F7   clean_3_times.loop_2
00:000054FB   clean_3_times.loop
00:00005507   setup_nametable
00:00005520   setup_nametable.loop_b
00:00005547   setup_nametable.fin_b
00:00005549   setup_nametable_Aplane
00:00005559   setup_nametable_Aplane.loop
00:00005580   setup_nametable_Aplane.fin
00:00005582   carga_paleta_g9b
00:00005588 X carga_paleta_g9b.paletavram
00:0000559D   carga_paleta_g9b.exit
00:000055A3   G9kDisplayEnable
00:000055AE X G9kDisplayDisable
00:000055B9   OUT_ESCRIBE_UN_BYTE
00:000055C6   VUELCA_BIN_EN_V9990
00:000055DE   VUELCA_BIN_EN_V9990.escribe_A_1
00:00005602   VUELCA_BIN_EN_V9990.segunda_parte
00:00005612   VUELCA_BIN_EN_V9990.escribe_A_2
00:00005636   VUELCA_BIN_EN_V9990.final
00:00008000 X TILES_A_1
00:00008000 X TILES_A_2
00:00008000   PINTAMOS_PANTALLA_EN_LA_QUE_ESTAMOS
00:0000801C   SPRITES_DESAPARECIDOS
00:00008024   SPRITES_DESAPARECIDOS.bucle_borra_objeto
00:00008070   PLANO_B_DESAPARECIDO
00:00008084   PLANO_B_DESAPARECIDO.bucle
00:000080B9   PLANO_B_DESAPARECIDO.bucle_2
00:000080C4   NUEVA_POSICION_DE_SCROLL
00:000080E9   CREA_SCROLL_ADECUADO
00:00008101   CREA_SCROLL_ADECUADO.up
00:0000810C   CREA_SCROLL_ADECUADO.down
00:00008117   CREA_SCROLL_ADECUADO.left
00:00008122   CREA_SCROLL_ADECUADO.right
00:0000812D   CREA_SCROLL_ADECUADO.scroll_adecuado_comun_1_vertical
00:0000813F   CREA_SCROLL_ADECUADO.scroll_adecuado_comun_2_vertical
00:00008161   CREA_SCROLL_ADECUADO.scroll_adecuado_comun_1_horizontal
00:00008173   CREA_SCROLL_ADECUADO.scroll_adecuado_comun_2_horizontal
00:0000818F   CREA_SCROLL_ADECUADO.comun_vertical_horizontal_1
00:0000819A   CREA_SCROLL_ADECUADO.saca_valor_pila_y_ret
00:0000819D   CALCULA_PANTALLA_EN_LA_QUE_ESTA
00:000081B3   SITUA_EL_PUNTERO_EN_EL_MAPA_SEGUN_PANTALLA
00:000081BE   CALCULA_VRAM_DONDE_PINTAR
00:000081D6   CALCULA_VRAM_DONDE_PINTAR.up
00:000081E1   CALCULA_VRAM_DONDE_PINTAR.right_left
00:000081EC   CALCULA_VRAM_DONDE_PINTAR.down
00:000081F7   CALCULA_VRAM_DONDE_PINTAR.comun_direcciones_1
00:0000820E   CALCULA_VRAM_DONDE_PINTAR.comun_direcciones_2
00:00008222   PINTA_PATRONES_PANTALLA_A
00:00008230   PINTA_PATRONES_PANTALLA_A.bucle
00:00008240   PINTA_FILA_8_SUPERTYLES_Y_SE_COLOCA_EN_EL_SIGUIENTE
00:00008246   PINTA_FILA_8_SUPERTYLES_Y_SE_COLOCA_EN_EL_SIGUIENTE.bucle
00:0000826A   PINTA_UN_HYPERTILE_Y_SE_COLOCA_PARA_EL_SIGUIENTE
00:0000827F   PINTA_UN_HYPERTILE_Y_SE_COLOCA_PARA_EL_SIGUIENTE.bucle
00:000082A6   PINTA_UN_HYPERTILE_Y_SE_COLOCA_PARA_EL_SIGUIENTE.BLOQUE_TRES_TYLES
00:000082AF   AVANZA_A_LA_SIGUIENTE_LINEA_DE_PATRONES
00:000082CE   AVANZA_AL_SIGUIENTE_TYLE
00:000082D3   PINTA_UN_TILE_DEL_HYPERTILE
00:000082DE   CALCULA_HYPERTILE_EN_EL_QUE_ESTA
00:000082F3   SITUA_EL_PUNTERO_DE_SUPER_TILES
00:00008300   TILES_DE_B
00:0000830D X TILES_DE_B.REUSANDO_EL_PINTADO_DE_B
00:00008315   TILES_DE_B.PANTALLA00
00:00008316   TILES_DE_B.PANTALLA12
00:0000831D   TILES_DE_B.PANTALLA13
00:00008324   TILES_DE_B.PANTALLA14
00:0000832B   TILES_DE_B.PANTALLA15
00:00008332   TILES_DE_B.PANTALLA19
00:00008339   TILES_DE_B.PANTALLA20
00:00008340   TILES_DE_B.PANTALLA21
00:00008347   TILES_DE_B.PANTALLA22
00:0000834E   TILES_DE_B.PANTALLA23
00:00008355   TILES_DE_B.PANTALLA24
00:0000835C   TILES_DE_B.PANTALLA27
00:00008363   TILES_DE_B.PANTALLA28
00:0000836A   TILES_DE_B.PANTALLA29
00:00008371   TILES_DE_B.PANTALLA35
00:00008378   TILES_DE_B.PANTALLA42
00:0000837F   TILES_DE_B.PANTALLA51
00:00008386   TILES_DE_B.PANTALLA52
00:0000838D   TILES_DE_B.PANTALLA55
00:00008394   TILES_DE_B.PANTALLA64
00:0000839B   TILES_DE_B.PANTALLA66
00:000083A2   TILES_DE_B.PANTALLA69
00:000083A9   TILES_DE_B.PINTURA_GLOBAL
00:000083AD   TILES_DE_B.bucle_cantidad_tiras
00:000083C9   TILES_DE_B.bucle_cantidad_tiles_en_tira
00:000083DF   MIRA_QUE_HAY_ALREDEDOR_DEL_PROTA
00:000083E9   MIRA_QUE_HAY_ALREDEDOR_DEL_PROTA.bucle
00:0000840C   MIRA_QUE_HAY_ALREDEDOR_DEL_PROTA.calculo
00:0000849E   COSAS_ESPECIALES_POR_PANTALLA
00:000084B3   INICIO_PANTALLA_00
00:000084BB   INICIO_PANTALLA_01
00:000084BB   INICIO_PANTALLA_02
00:000084BC   INICIO_PANTALLA_03
00:000084FD   INICIO_PANTALLA_04
00:00008505   INICIO_PANTALLA_05
00:00008505   INICIO_PANTALLA_06
00:00008506   INICIO_PANTALLA_07
00:0000850E   INICIO_PANTALLA_08
00:00008516   INICIO_PANTALLA_09
00:0000851E   INICIO_PANTALLA_10
00:00008526   INICIO_PANTALLA_11
00:0000852E   INICIO_PANTALLA_12
00:00008536   INICIO_PANTALLA_13
00:00008536   INICIO_PANTALLA_14
00:00008537   INICIO_PANTALLA_15
00:0000853D   INICIO_PANTALLA_16
00:00008551   INICIO_PANTALLA_16.MIRAMOS_SEGUNDO_OBJETO
00:00008559   INICIO_PANTALLA_17
00:00008559   INICIO_PANTALLA_18
00:00008559   INICIO_PANTALLA_19
00:0000855A   INICIO_PANTALLA_20
00:00008562   INICIO_PANTALLA_21
00:00008563   INICIO_PANTALLA_22
00:0000856B   INICIO_PANTALLA_23
00:0000856B   INICIO_PANTALLA_24
00:0000856B   INICIO_PANTALLA_25
00:0000856B   INICIO_PANTALLA_26
00:0000856B   INICIO_PANTALLA_27
00:0000856C   INICIO_PANTALLA_28
00:00008585   INICIO_PANTALLA_28.bucle_cuerda
00:000085A0   INICIO_PANTALLA_28.UNO
00:000085AC   INICIO_PANTALLA_29
00:000085BA   INICIO_PANTALLA_29.MIRAMOS_SEGUNDO_OBJETO
00:000085C2   INICIO_PANTALLA_30
00:000085C2   INICIO_PANTALLA_31
00:000085C2   INICIO_PANTALLA_32
00:000085C3   INICIO_PANTALLA_33
00:000085CB   INICIO_PANTALLA_34
00:000085D3   INICIO_PANTALLA_35
00:000085D3   INICIO_PANTALLA_36
00:000085D3   INICIO_PANTALLA_37
00:000085D3   INICIO_PANTALLA_38
00:000085D4   INICIO_PANTALLA_39
00:000085DC   INICIO_PANTALLA_40
00:000085E4   INICIO_PANTALLA_41
00:000085E5   INICIO_PANTALLA_42
00:000085ED   INICIO_PANTALLA_43
00:000085EE   INICIO_PANTALLA_44
00:000085F6   INICIO_PANTALLA_45
00:000085F6   INICIO_PANTALLA_46
00:000085F6   INICIO_PANTALLA_47
00:000085F6   INICIO_PANTALLA_48
00:000085F7   INICIO_PANTALLA_49
00:000085FF   INICIO_PANTALLA_50
00:00008600   INICIO_PANTALLA_51
00:00008608   INICIO_PANTALLA_52
00:00008610   INICIO_PANTALLA_53
00:00008610   INICIO_PANTALLA_54
00:00008610   INICIO_PANTALLA_55
00:00008610   INICIO_PANTALLA_56
00:00008610   INICIO_PANTALLA_57
00:00008610   INICIO_PANTALLA_58
00:00008610   INICIO_PANTALLA_59
00:00008611   INICIO_PANTALLA_60
00:00008619   INICIO_PANTALLA_61
00:00008619   INICIO_PANTALLA_62
00:0000861A   INICIO_PANTALLA_63
00:00008622   INICIO_PANTALLA_64
00:00008622   INICIO_PANTALLA_65
00:00008623   INICIO_PANTALLA_66
00:0000862B   INICIO_PANTALLA_67
00:0000862B   INICIO_PANTALLA_68
00:0000862C   INICIO_PANTALLA_69
00:00008634   DA_ATRIBUTOS_OBJETO_SECUNDARIO
00:00008642   DA_ATRIBUTOS_OBJETO
00:0000864D   DA_ATRIBUTOS_COMUN
00:0000867A   DA_ATRIBUTOS_COMUN.atributos_1
00:00008687   DA_ATRIBUTOS_COMUN.atributos_2
00:0000868D   ORGANIZA_OBJETOS
00:0000868D X ORGANIZA_OBJETOS.BUSCAMOS_EL_OBJETO_COGIDO
00:00008693   ORGANIZA_OBJETOS.bucle_busqueda_1
00:000086A5   ORGANIZA_OBJETOS.BUSCAMOS_EL_OBJETO_EN_USO
00:000086AE   ORGANIZA_OBJETOS.bucle_busqueda_2
00:000086C4   ORGANIZA_OBJETOS.BUSCAMOS_ESPACIO_LIBRE
00:000086CD   ORGANIZA_OBJETOS.bucle_busqueda_3
00:000086E3   ORGANIZA_OBJETOS.resetea
00:000086F3   ORGANIZA_OBJETOS.ENCONTRADO_POST
00:000086F6   ORGANIZA_OBJETOS.ENCONTRADO
00:0000870E   COLOCA_OBJETOS_BOLSILLO_Y_USANDO
00:0000871C   COLOCA_OBJETOS_BOLSILLO_Y_USANDO.bucle_busca_objeto_usando
00:00008741   COLOCA_OBJETOS_BOLSILLO_Y_USANDO.bucle_sigue_usando
00:00008756   COLOCA_OBJETOS_BOLSILLO_Y_USANDO.bolsillos
00:00008756 X COLOCA_OBJETOS_BOLSILLO_Y_USANDO.bolsillo_A
00:0000875F   COLOCA_OBJETOS_BOLSILLO_Y_USANDO.bucle_objetos_de_bolsillo_a
00:00008777   COLOCA_OBJETOS_BOLSILLO_Y_USANDO.bucle_sigue_a
00:00008788   COLOCA_OBJETOS_BOLSILLO_Y_USANDO.bolsillo_B
00:00008788 X COLOCA_OBJETOS_BOLSILLO_Y_USANDO.bolsillo_b_inicia
00:0000878D   COLOCA_OBJETOS_BOLSILLO_Y_USANDO.bucle_objetos_de_bolsillo_b
00:000087A5   COLOCA_OBJETOS_BOLSILLO_Y_USANDO.bucle_sigue_b
00:000087B6   COLOCA_OBJETOS_BOLSILLO_Y_USANDO.bolsillo_C
00:000087BB   COLOCA_OBJETOS_BOLSILLO_Y_USANDO.bucle_objetos_de_bolsillo_c
00:000087D0   COLOCA_OBJETOS_BOLSILLO_Y_USANDO.bucle_sigue_c
00:000087E1   COLOCA_OBJETOS_BOLSILLO_Y_USANDO.prepara_relacion_posiciones_sprites
00:000087EE   COLOCA_OBJETOS_BOLSILLO_Y_USANDO.bolsillo_prepara
00:000087FC   COLOCA_OBJETOS_BOLSILLO_Y_USANDO.bolsillo_cont1
00:00008803   COLOCA_OBJETOS_BOLSILLO_Y_USANDO.bolsillo_cont2
00:0000880D   COLOCA_OBJETOS_BOLSILLO_Y_USANDO.prepara_atributos
00:0000881E   COLOCA_OBJETOS_BOLSILLO_Y_USANDO.bucle_pinta_dos_bytes_y_sigue
00:0000882A   COLOCA_OBJETOS_BOLSILLO_Y_USANDO.bucle_pinta_dos_bytes_y_sigue_0
00:00008841   COLOCA_OBJETOS_BOLSILLO_Y_USANDO.bucle_pinta_dos_bytes_y_sigue_1
00:0000884A   COLOCA_OBJETOS_BOLSILLO_Y_USANDO.bucle_pinta_dos_bytes_y_sigue_2
00:00008850   COLOCA_OBJETOS_BOLSILLO_Y_USANDO.bucle_pinta_dos_bytes_y_sigue_3
00:0000885B X ATRIBUTOS_VIDAS
00:0000885B   ATRIBUTOS_VIDAS_3
00:00008893   ATRIBUTOS_VIDAS_2
00:000088CB   ATRIBUTOS_VIDAS_1
00:00008903   ATRIBUTOS_VIDAS_0
00:0000893B   RELACION_POSICIONES_SPRITES_OBJETOS
00:0000895B   RELACION_DE_SUCESOS_POR_PANTALLA
00:000089E7   RELACION_POSICIONES_OBJETOS
00:00008AB9   RELACION_POSICIONES_OBJETOS_2
00:00008B8B   RELACION_DE_EVENTOS_ESPECIALES_POR_PANTALLA
00:00008C17   POSICIONES_TYLES_ALREDEDOR
00:00008C3D   RELACION_EXTRAS_TILES_B
00:00008CC9   RELACION_TILES_B_PANTALLA_12
00:00008CD3   RELACION_TILES_B_PANTALLA_13
00:00008CFB   RELACION_TILES_B_PANTALLA_14
00:00008D3F   RELACION_TILES_B_PANTALLA_15
00:00008D55   RELACION_TILES_B_PANTALLA_19
00:00008D67   RELACION_TILES_B_PANTALLA_20
00:00008DC1   RELACION_TILES_B_PANTALLA_21
00:00008DF3   RELACION_TILES_B_PANTALLA_22
00:00008E1B   RELACION_TILES_B_PANTALLA_23
00:00008E53   RELACION_TILES_B_PANTALLA_24
00:00008E69   RELACION_TILES_B_PANTALLA_27
00:00008E73   RELACION_TILES_B_PANTALLA_28
00:00008E7D   RELACION_TILES_B_PANTALLA_29
00:00008EB1   RELACION_TILES_B_PANTALLA_35
00:00008EC7   RELACION_TILES_B_PANTALLA_42
00:00008ED1   RELACION_TILES_B_PANTALLA_51
00:00008EDB   RELACION_TILES_B_PANTALLA_52
00:00008EF1   RELACION_TILES_B_PANTALLA_55
00:00008F5F   RELACION_TILES_B_PANTALLA_64
00:00008F69   RELACION_TILES_B_PANTALLA_66
00:00008F73   RELACION_TILES_B_PANTALLA_69
00:00008FBB   DATAS_PUENTE
00:00008FD5   RELACION_PARTE_VRAM_POS_SCROLL
00:00008FF9   RELACION_POSICION_VRAM_A_PINTAR
00:0000905B   RELACION_TILE_HYPERTILE
00:0000922B   RELACION_PANTALLA_TILE
00:000092BB   MAPA
00:00009BBB   HYPERTYLES
00:00008000 X MARCADOR_B_1
00:00008000 X MARCADOR_B_2
00:00008000 X SPR_EXPO_1_1
00:00008000 X SPR_EXPO_1_2
00:00008000   SPR_EXPO_ASP
00:00008400   SPR_EXPO_UMB
00:00008800   SPR_EXPO_BAL
00:00008A00   SPR_EXPO_EXP
00:00009200   SPR_EXPO_FLU
00:0000A200   SPR_EXPO_WAC
00:0000B200   SPR_EXPO_CAN
00:00008000   ANIMACION_CANYON
00:00008007 X ANIMACION_CANYON.miramos_polvora_peque
00:00008017   ANIMACION_CANYON.miramos_polvora_med
00:00008027   ANIMACION_CANYON.miramos_polvora_gra
00:00008032   ANIMACION_CANYON.ya_sabemos_lo_que_es
00:0000803F X ANIMACION_CANYON.es_gran
00:00008046   ANIMACION_CANYON.es_peque
00:0000804D   ANIMACION_CANYON.es_medi
00:00008051   ANIMACION_CANYON.leemos_datos
00:00008080   ANIMACION_CANYON.se_acabo
00:0000809D   DATAS_CANYON_LOW
00:00008178   DATAS_CANYON_MID
00:00008253   DATAS_CANYON_HIG


 Output: NUCLEO.out
-------------------------------------------------

 Page: 00
  Org: 00004000  Size: *  Used: 00000000

    No output

 Output: NEWTERRA.rom
-------------------------------------------------

 Page: 00
  Org: 00004000  Size: *  Used: 00058000

   Address   Length Align   Label
   00004000  360448         INICIO
